ARM GAS  C:\Users\tsien\AppData\Local\Temp\cctKGwxD.s 			page 1


   1              		.syntax unified
   2              		.cpu cortex-m0
   3              		.fpu softvfp
   4              		.eabi_attribute 20, 1
   5              		.eabi_attribute 21, 1
   6              		.eabi_attribute 23, 3
   7              		.eabi_attribute 24, 1
   8              		.eabi_attribute 25, 1
   9              		.eabi_attribute 26, 1
  10              		.eabi_attribute 30, 1
  11              		.eabi_attribute 34, 0
  12              		.eabi_attribute 18, 4
  13              		.thumb
  14              		.syntax unified
  15              		.file	"battery.c"
  16              		.text
  17              	.Ltext0:
  18              		.cfi_sections	.debug_frame
  19              		.section	.text.I2C_RW_Address,"ax",%progbits
  20              		.align	2
  21              		.global	I2C_RW_Address
  22              		.code	16
  23              		.thumb_func
  24              		.type	I2C_RW_Address, %function
  25              	I2C_RW_Address:
  26              	.LFB34:
  27              		.file 1 "battery.c"
   1:battery.c     **** /* ========================================
   2:battery.c     ****  *
   3:battery.c     ****  * Copyright YOUR COMPANY, THE YEAR
   4:battery.c     ****  * All Rights Reserved
   5:battery.c     ****  * UNPUBLISHED, LICENSED SOFTWARE.
   6:battery.c     ****  *
   7:battery.c     ****  * CONFIDENTIAL AND PROPRIETARY INFORMATION
   8:battery.c     ****  * WHICH IS THE PROPERTY OF your company.
   9:battery.c     ****  *
  10:battery.c     ****  * ========================================
  11:battery.c     **** */
  12:battery.c     **** 
  13:battery.c     **** #include "project.h"
  14:battery.c     **** #include "io.h"
  15:battery.c     **** 
  16:battery.c     **** uint8 MICHAEL_LOW = 0;
  17:battery.c     **** uint8 KEN_LOW = 0;
  18:battery.c     ****     
  19:battery.c     **** uint32 I2C_RW_Address(uint32 baseAddress, char read)
  20:battery.c     **** {   
  28              		.loc 1 20 0
  29              		.cfi_startproc
  30              		@ args = 0, pretend = 0, frame = 0
  31              		@ frame_needed = 0, uses_anonymous_args = 0
  32              		@ link register save eliminated.
  33              	.LVL0:
  21:battery.c     ****     return (read > 1 || read < 0) ? 0 :
  34              		.loc 1 21 0
  35 0000 0129     		cmp	r1, #1
  36 0002 02D8     		bhi	.L3
ARM GAS  C:\Users\tsien\AppData\Local\Temp\cctKGwxD.s 			page 2


  22:battery.c     ****         (baseAddress << 1 | read);
  37              		.loc 1 22 0 discriminator 1
  38 0004 4000     		lsls	r0, r0, #1
  39              	.LVL1:
  21:battery.c     ****     return (read > 1 || read < 0) ? 0 :
  40              		.loc 1 21 0 discriminator 1
  41 0006 0843     		orrs	r0, r1
  42 0008 00E0     		b	.L2
  43              	.LVL2:
  44              	.L3:
  21:battery.c     ****     return (read > 1 || read < 0) ? 0 :
  45              		.loc 1 21 0 is_stmt 0
  46 000a 0020     		movs	r0, #0
  47              	.LVL3:
  48              	.L2:
  23:battery.c     **** }
  49              		.loc 1 23 0 is_stmt 1 discriminator 4
  50              		@ sp needed
  51 000c 7047     		bx	lr
  52              		.cfi_endproc
  53              	.LFE34:
  54              		.size	I2C_RW_Address, .-I2C_RW_Address
  55 000e C046     		.section	.text.INA226Read,"ax",%progbits
  56              		.align	2
  57              		.global	INA226Read
  58              		.code	16
  59              		.thumb_func
  60              		.type	INA226Read, %function
  61              	INA226Read:
  62              	.LFB35:
  24:battery.c     **** 
  25:battery.c     **** uint8 INA226Read(uint32 address, uint8* store)
  26:battery.c     **** {
  63              		.loc 1 26 0
  64              		.cfi_startproc
  65              		@ args = 0, pretend = 0, frame = 0
  66              		@ frame_needed = 0, uses_anonymous_args = 0
  67              	.LVL4:
  68 0000 70B5     		push	{r4, r5, r6, lr}
  69              		.cfi_def_cfa_offset 16
  70              		.cfi_offset 4, -16
  71              		.cfi_offset 5, -12
  72              		.cfi_offset 6, -8
  73              		.cfi_offset 14, -4
  74 0002 0400     		movs	r4, r0
  75 0004 0D00     		movs	r5, r1
  76              	.LVL5:
  77              	.L5:
  27:battery.c     ****     while (
  28:battery.c     ****         I2C_Brain_I2CMasterStatus() == I2C_Brain_I2C_MSTAT_XFER_INP ||
  78              		.loc 1 28 0 discriminator 1
  79 0006 FFF7FEFF 		bl	I2C_Brain_I2CMasterStatus
  80              	.LVL6:
  27:battery.c     ****     while (
  81              		.loc 1 27 0 discriminator 1
  82 000a 0428     		cmp	r0, #4
  83 000c FBD0     		beq	.L5
ARM GAS  C:\Users\tsien\AppData\Local\Temp\cctKGwxD.s 			page 3


  29:battery.c     ****         INA226_I2C_I2CMasterStatus() == INA226_I2C_I2C_MSTAT_XFER_INP
  84              		.loc 1 29 0 discriminator 1
  85 000e FFF7FEFF 		bl	INA226_I2C_I2CMasterStatus
  86              	.LVL7:
  28:battery.c     ****         INA226_I2C_I2CMasterStatus() == INA226_I2C_I2C_MSTAT_XFER_INP
  87              		.loc 1 28 0 discriminator 1
  88 0012 0428     		cmp	r0, #4
  89 0014 F7D0     		beq	.L5
  30:battery.c     ****     ) {}
  31:battery.c     ****     uint32 status = I2C_Brain_I2CMasterSendStart(address, I2C_Brain_I2C_READ_XFER_MODE,
  90              		.loc 1 31 0
  91 0016 FA22     		movs	r2, #250
  92 0018 5200     		lsls	r2, r2, #1
  93 001a 0121     		movs	r1, #1
  94 001c 2000     		movs	r0, r4
  95 001e FFF7FEFF 		bl	I2C_Brain_I2CMasterSendStart
  96              	.LVL8:
  32:battery.c     ****             I2C_TIMEOUT);
  33:battery.c     ****     while (status != I2C_Brain_I2C_MSTR_NOT_READY) {
  97              		.loc 1 33 0
  98 0022 05E0     		b	.L7
  99              	.L8:
  34:battery.c     ****         status = I2C_Brain_I2CMasterSendStart(address, I2C_Brain_I2C_READ_XFER_MODE,
 100              		.loc 1 34 0
 101 0024 FA22     		movs	r2, #250
 102 0026 5200     		lsls	r2, r2, #1
 103 0028 0121     		movs	r1, #1
 104 002a 2000     		movs	r0, r4
 105              	.LVL9:
 106 002c FFF7FEFF 		bl	I2C_Brain_I2CMasterSendStart
 107              	.LVL10:
 108              	.L7:
  33:battery.c     ****         status = I2C_Brain_I2CMasterSendStart(address, I2C_Brain_I2C_READ_XFER_MODE,
 109              		.loc 1 33 0
 110 0030 0428     		cmp	r0, #4
 111 0032 F7D1     		bne	.L8
  35:battery.c     ****             I2C_TIMEOUT);
  36:battery.c     ****     }
  37:battery.c     ****     if (status == I2C_Brain_I2C_MSTR_NO_ERROR) {
 112              		.loc 1 37 0
 113 0034 0028     		cmp	r0, #0
 114 0036 07D1     		bne	.L10
  38:battery.c     ****         I2C_Brain_I2CMasterReadByte(I2C_Brain_I2C_NAK_DATA, store, I2C_TIMEOUT);
 115              		.loc 1 38 0
 116 0038 FA22     		movs	r2, #250
 117 003a 5200     		lsls	r2, r2, #1
 118 003c 2900     		movs	r1, r5
 119 003e 0130     		adds	r0, r0, #1
 120              	.LVL11:
 121 0040 FFF7FEFF 		bl	I2C_Brain_I2CMasterReadByte
 122              	.LVL12:
  39:battery.c     ****         return SUCCESS;
 123              		.loc 1 39 0
 124 0044 0020     		movs	r0, #0
 125 0046 00E0     		b	.L9
 126              	.LVL13:
 127              	.L10:
ARM GAS  C:\Users\tsien\AppData\Local\Temp\cctKGwxD.s 			page 4


  40:battery.c     ****     } else {
  41:battery.c     ****         return FAIL;
 128              		.loc 1 41 0
 129 0048 0120     		movs	r0, #1
 130              	.LVL14:
 131              	.L9:
  42:battery.c     ****     }
  43:battery.c     **** }
 132              		.loc 1 43 0
 133              		@ sp needed
 134              	.LVL15:
 135              	.LVL16:
 136 004a 70BD     		pop	{r4, r5, r6, pc}
 137              		.cfi_endproc
 138              	.LFE35:
 139              		.size	INA226Read, .-INA226Read
 140              		.section	.text.JettySend,"ax",%progbits
 141              		.align	2
 142              		.global	JettySend
 143              		.code	16
 144              		.thumb_func
 145              		.type	JettySend, %function
 146              	JettySend:
 147              	.LFB36:
  44:battery.c     **** 
  45:battery.c     **** uint8_t JettySend(uint32 address, uint8* store)
  46:battery.c     **** {   
 148              		.loc 1 46 0
 149              		.cfi_startproc
 150              		@ args = 0, pretend = 0, frame = 0
 151              		@ frame_needed = 0, uses_anonymous_args = 0
 152              	.LVL17:
 153 0000 70B5     		push	{r4, r5, r6, lr}
 154              		.cfi_def_cfa_offset 16
 155              		.cfi_offset 4, -16
 156              		.cfi_offset 5, -12
 157              		.cfi_offset 6, -8
 158              		.cfi_offset 14, -4
 159 0002 0400     		movs	r4, r0
 160 0004 0D00     		movs	r5, r1
 161              	.LVL18:
 162              	.L12:
  47:battery.c     ****     while (
  48:battery.c     ****         I2C_Brain_I2CMasterStatus() == I2C_Brain_I2C_MSTAT_XFER_INP ||
 163              		.loc 1 48 0 discriminator 1
 164 0006 FFF7FEFF 		bl	I2C_Brain_I2CMasterStatus
 165              	.LVL19:
  47:battery.c     ****     while (
 166              		.loc 1 47 0 discriminator 1
 167 000a 0428     		cmp	r0, #4
 168 000c FBD0     		beq	.L12
  49:battery.c     ****         Jetty_I2CMasterStatus() == INA226_I2C_I2C_MSTAT_XFER_INP
 169              		.loc 1 49 0 discriminator 1
 170 000e FFF7FEFF 		bl	Jetty_I2CMasterStatus
 171              	.LVL20:
  48:battery.c     ****         Jetty_I2CMasterStatus() == INA226_I2C_I2C_MSTAT_XFER_INP
 172              		.loc 1 48 0 discriminator 1
ARM GAS  C:\Users\tsien\AppData\Local\Temp\cctKGwxD.s 			page 5


 173 0012 0428     		cmp	r0, #4
 174 0014 F7D0     		beq	.L12
  50:battery.c     ****     ) {}
  51:battery.c     ****     uint32 status = I2C_Brain_I2CMasterSendStart(address, I2C_Brain_I2C_WRITE_XFER_MODE,
 175              		.loc 1 51 0
 176 0016 FA22     		movs	r2, #250
 177 0018 5200     		lsls	r2, r2, #1
 178 001a 0021     		movs	r1, #0
 179 001c 2000     		movs	r0, r4
 180 001e FFF7FEFF 		bl	I2C_Brain_I2CMasterSendStart
 181              	.LVL21:
  52:battery.c     ****             I2C_TIMEOUT);
  53:battery.c     ****     while (status != I2C_Brain_I2C_MSTR_NOT_READY) {
 182              		.loc 1 53 0
 183 0022 05E0     		b	.L14
 184              	.L15:
  54:battery.c     ****         status = I2C_Brain_I2CMasterSendStart(address, I2C_Brain_I2C_READ_XFER_MODE,
 185              		.loc 1 54 0
 186 0024 FA22     		movs	r2, #250
 187 0026 5200     		lsls	r2, r2, #1
 188 0028 0121     		movs	r1, #1
 189 002a 2000     		movs	r0, r4
 190              	.LVL22:
 191 002c FFF7FEFF 		bl	I2C_Brain_I2CMasterSendStart
 192              	.LVL23:
 193              	.L14:
  53:battery.c     ****         status = I2C_Brain_I2CMasterSendStart(address, I2C_Brain_I2C_READ_XFER_MODE,
 194              		.loc 1 53 0
 195 0030 0428     		cmp	r0, #4
 196 0032 F7D1     		bne	.L15
  55:battery.c     ****             I2C_TIMEOUT);
  56:battery.c     ****     }
  57:battery.c     ****     if (status == I2C_Brain_I2C_MSTR_NO_ERROR) {
 197              		.loc 1 57 0
 198 0034 0028     		cmp	r0, #0
 199 0036 07D1     		bne	.L17
  58:battery.c     ****         I2C_Brain_I2CMasterReadByte(I2C_Brain_I2C_NAK_DATA, store, I2C_TIMEOUT);
 200              		.loc 1 58 0
 201 0038 FA22     		movs	r2, #250
 202 003a 5200     		lsls	r2, r2, #1
 203 003c 2900     		movs	r1, r5
 204 003e 0130     		adds	r0, r0, #1
 205              	.LVL24:
 206 0040 FFF7FEFF 		bl	I2C_Brain_I2CMasterReadByte
 207              	.LVL25:
  59:battery.c     ****         return SUCCESS;
 208              		.loc 1 59 0
 209 0044 0020     		movs	r0, #0
 210 0046 00E0     		b	.L16
 211              	.LVL26:
 212              	.L17:
  60:battery.c     ****     } else {
  61:battery.c     ****         return FAIL;
 213              		.loc 1 61 0
 214 0048 0120     		movs	r0, #1
 215              	.LVL27:
 216              	.L16:
ARM GAS  C:\Users\tsien\AppData\Local\Temp\cctKGwxD.s 			page 6


  62:battery.c     ****     }
  63:battery.c     **** }
 217              		.loc 1 63 0
 218              		@ sp needed
 219              	.LVL28:
 220              	.LVL29:
 221 004a 70BD     		pop	{r4, r5, r6, pc}
 222              		.cfi_endproc
 223              	.LFE36:
 224              		.size	JettySend, .-JettySend
 225              		.section	.text.convertValue,"ax",%progbits
 226              		.align	2
 227              		.global	convertValue
 228              		.code	16
 229              		.thumb_func
 230              		.type	convertValue, %function
 231              	convertValue:
 232              	.LFB37:
  64:battery.c     **** 
  65:battery.c     **** uint32 convertValue(uint8 adc_value) {
 233              		.loc 1 65 0
 234              		.cfi_startproc
 235              		@ args = 0, pretend = 0, frame = 0
 236              		@ frame_needed = 0, uses_anonymous_args = 0
 237              		@ link register save eliminated.
 238              	.LVL30:
  66:battery.c     ****     return (uint32)adc_value;   
  67:battery.c     **** }
 239              		.loc 1 67 0
 240              		@ sp needed
 241 0000 7047     		bx	lr
 242              		.cfi_endproc
 243              	.LFE37:
 244              		.size	convertValue, .-convertValue
 245 0002 C046     		.section	.text.BatteryBalanceInit,"ax",%progbits
 246              		.align	2
 247              		.global	BatteryBalanceInit
 248              		.code	16
 249              		.thumb_func
 250              		.type	BatteryBalanceInit, %function
 251              	BatteryBalanceInit:
 252              	.LFB38:
  68:battery.c     **** 
  69:battery.c     **** 
  70:battery.c     **** void BatteryBalanceInit(void)
  71:battery.c     **** {
 253              		.loc 1 71 0
 254              		.cfi_startproc
 255              		@ args = 0, pretend = 0, frame = 0
 256              		@ frame_needed = 0, uses_anonymous_args = 0
 257 0000 10B5     		push	{r4, lr}
 258              		.cfi_def_cfa_offset 8
 259              		.cfi_offset 4, -8
 260              		.cfi_offset 14, -4
  72:battery.c     ****     I2C_Brain_Start();
 261              		.loc 1 72 0
 262 0002 FFF7FEFF 		bl	I2C_Brain_Start
ARM GAS  C:\Users\tsien\AppData\Local\Temp\cctKGwxD.s 			page 7


 263              	.LVL31:
  73:battery.c     ****     
  74:battery.c     ****     Jetty_Start();
 264              		.loc 1 74 0
 265 0006 FFF7FEFF 		bl	Jetty_Start
 266              	.LVL32:
  75:battery.c     ****     //Jetty_I2CSlaveSetAddress(JETTY);
  76:battery.c     **** }
 267              		.loc 1 76 0
 268              		@ sp needed
 269 000a 10BD     		pop	{r4, pc}
 270              		.cfi_endproc
 271              	.LFE38:
 272              		.size	BatteryBalanceInit, .-BatteryBalanceInit
 273              		.global	KEN_LOW
 274              		.global	MICHAEL_LOW
 275              		.bss
 276              		.type	KEN_LOW, %object
 277              		.size	KEN_LOW, 1
 278              	KEN_LOW:
 279 0000 00       		.space	1
 280              		.type	MICHAEL_LOW, %object
 281              		.size	MICHAEL_LOW, 1
 282              	MICHAEL_LOW:
 283 0001 00       		.space	1
 284              		.text
 285              	.Letext0:
 286              		.file 2 "c:\\program files (x86)\\cypress\\psoc creator\\4.4\\psoc creator\\import\\gnu\\arm\\5.4.
 287              		.file 3 "c:\\program files (x86)\\cypress\\psoc creator\\4.4\\psoc creator\\import\\gnu\\arm\\5.4.
 288              		.file 4 "Generated_Source\\PSoC4/cytypes.h"
 289              		.file 5 "Generated_Source\\PSoC4/I2C_Brain_I2C.h"
 290              		.file 6 "Generated_Source\\PSoC4/INA226_I2C_I2C.h"
 291              		.file 7 "Generated_Source\\PSoC4/Jetty_I2C.h"
 292              		.file 8 "Generated_Source\\PSoC4/I2C_Brain.h"
 293              		.file 9 "Generated_Source\\PSoC4/Jetty.h"