ARM GAS  C:\Users\tsien\AppData\Local\Temp\cc4MCm62.s 			page 1


   1              		.syntax unified
   2              		.cpu cortex-m0
   3              		.fpu softvfp
   4              		.eabi_attribute 20, 1
   5              		.eabi_attribute 21, 1
   6              		.eabi_attribute 23, 3
   7              		.eabi_attribute 24, 1
   8              		.eabi_attribute 25, 1
   9              		.eabi_attribute 26, 1
  10              		.eabi_attribute 30, 1
  11              		.eabi_attribute 34, 0
  12              		.eabi_attribute 18, 4
  13              		.thumb
  14              		.syntax unified
  15              		.file	"INA226.c"
  16              		.text
  17              	.Ltext0:
  18              		.cfi_sections	.debug_frame
  19              		.section	.text.readRegister,"ax",%progbits
  20              		.align	2
  21              		.global	readRegister
  22              		.code	16
  23              		.thumb_func
  24              		.type	readRegister, %function
  25              	readRegister:
  26              	.LFB42:
  27              		.file 1 "INA226.c"
   1:INA226.c      **** /*
   2:INA226.c      ****  * Copyright (c) 2016 by Stefano Speretta <s.speretta@tudelft.nl>
   3:INA226.c      ****  *
   4:INA226.c      ****  * INA226: a library to provide high level APIs to interface with the
   5:INA226.c      ****  * TI INA226 current sensor. It is possible to use this library in
   6:INA226.c      ****  * Energia (the Arduino port for MSP microcontrollers) or in other
   7:INA226.c      ****  * toolchains.
   8:INA226.c      ****  *
   9:INA226.c      ****  * This file is free software; you can redistribute it and/or modify
  10:INA226.c      ****  * it under the terms of the GNU Lesser General Public License
  11:INA226.c      ****  * version 3, both as published by the Free Software Foundation.
  12:INA226.c      ****  *
  13:INA226.c      ****  */
  14:INA226.c      **** 
  15:INA226.c      **** #include <INA226.h>
  16:INA226.c      **** 
  17:INA226.c      **** 
  18:INA226.c      **** uint8_t init_INA226()
  19:INA226.c      **** {
  20:INA226.c      ****     INA226_I2C_Start();
  21:INA226.c      ****     reset();
  22:INA226.c      ****     setShuntResistor(100);
  23:INA226.c      ****     return ping();
  24:INA226.c      **** }
  25:INA226.c      **** 
  26:INA226.c      **** /**
  27:INA226.c      ****  *   Reset the INA226
  28:INA226.c      ****  *
  29:INA226.c      ****  *   Returns:
  30:INA226.c      ****  *   unsigned char         0 succes
ARM GAS  C:\Users\tsien\AppData\Local\Temp\cc4MCm62.s 			page 2


  31:INA226.c      ****  *                         1 fail
  32:INA226.c      ****  */
  33:INA226.c      **** uint8_t reset()
  34:INA226.c      **** {
  35:INA226.c      ****    uint8_t data[2];
  36:INA226.c      ****    data[0] = (INA226_RESET) >> 8;
  37:INA226.c      ****    data[1] = 0;  //INA226_RESET;
  38:INA226.c      ****    return writeRegister(INA226_REG_CONFIG, data, 2);
  39:INA226.c      **** }
  40:INA226.c      **** 
  41:INA226.c      **** /**
  42:INA226.c      ****  *   Verify if INA226 is present
  43:INA226.c      ****  *
  44:INA226.c      ****  *   Returns:
  45:INA226.c      ****  *   unsigned char         1 device found
  46:INA226.c      ****  *                         0 device not found
  47:INA226.c      ****  */
  48:INA226.c      **** uint8_t ping()
  49:INA226.c      **** {
  50:INA226.c      ****     uint8_t id[2];
  51:INA226.c      ****     readRegister(INA226_REG_ID, id, 2);
  52:INA226.c      ****     return ((id[0] << 8) + id[1]);
  53:INA226.c      **** }
  54:INA226.c      **** 
  55:INA226.c      **** /**
  56:INA226.c      ****  *   Sets the shunt resistor value in mOhm
  57:INA226.c      ****  *
  58:INA226.c      ****  *   Parameters:
  59:INA226.c      ****  *   unsigned short shunt  shunt resistor value in mOhm
  60:INA226.c      ****  *
  61:INA226.c      ****  *   Returns:
  62:INA226.c      ****  *   unsigned char         0 success
  63:INA226.c      ****  *                         1 fail
  64:INA226.c      ****  */
  65:INA226.c      **** uint8_t setShuntResistor(uint8_t shunt)
  66:INA226.c      **** {
  67:INA226.c      ****     uint8_t data[2];
  68:INA226.c      ****     data[0] = (INA226_CALIBRATION_REF / shunt) >> 8;
  69:INA226.c      ****     data[1] = INA226_CALIBRATION_REF / shunt;
  70:INA226.c      ****     return writeRegister(INA226_REG_CALIBRATION, data, 2);
  71:INA226.c      **** }
  72:INA226.c      **** 
  73:INA226.c      **** uint8_t setAlertLimitBusVoltage(uint8_t limit)
  74:INA226.c      **** {
  75:INA226.c      ****     uint8_t data[1];
  76:INA226.c      ****     data[0] = (uint8_t)(0.8 * limit);
  77:INA226.c      ****     return writeRegister(INA226_REG_ALERTLIMIT, data, 1);  //translate voltage to whole decimal (/2
  78:INA226.c      **** }
  79:INA226.c      **** 
  80:INA226.c      **** uint8_t setAlertEnableBusUnderVoltage()
  81:INA226.c      **** {
  82:INA226.c      ****     uint8_t data[2];
  83:INA226.c      ****     data[0] = (INA226_BIT_BUL) >> 8;
  84:INA226.c      ****     data[1] = 0;  //INA226_BIT_BUL;
  85:INA226.c      ****     return writeRegister(INA226_REG_MASKENABLE, data, 2);
  86:INA226.c      **** }
  87:INA226.c      **** /**
ARM GAS  C:\Users\tsien\AppData\Local\Temp\cc4MCm62.s 			page 3


  88:INA226.c      ****  *   Returns the bus voltage in mV
  89:INA226.c      ****  *
  90:INA226.c      ****  *   Parameters:
  91:INA226.c      ****  *   unsigned short &      bus voltage in mV
  92:INA226.c      ****  *
  93:INA226.c      ****  *   Returns:
  94:INA226.c      ****  *   unsigned char         0 success
  95:INA226.c      ****  *                         1 fail
  96:INA226.c      ****  */
  97:INA226.c      **** uint8_t getVoltage(uint8_t *v)
  98:INA226.c      **** {
  99:INA226.c      ****     uint8_t ret = readRegister(INA226_REG_BUSVOLTAGE, v, 2);
 100:INA226.c      ****     *v = *v + (*v >> 2);
 101:INA226.c      ****     if (ret)
 102:INA226.c      ****     {
 103:INA226.c      ****         *v = 0;
 104:INA226.c      ****     }
 105:INA226.c      ****     return ret;
 106:INA226.c      **** }
 107:INA226.c      **** 
 108:INA226.c      **** /**
 109:INA226.c      ****  *   Returns the voltage across the shunt resistor
 110:INA226.c      ****  *
 111:INA226.c      ****  *   Parameters:
 112:INA226.c      ****  *   signed short &      bus voltage (LSB = 2.5 uV)
 113:INA226.c      ****  *
 114:INA226.c      ****  *   Returns:
 115:INA226.c      ****  *   unsigned char         0 success
 116:INA226.c      ****  *                         1 fail
 117:INA226.c      ****  */
 118:INA226.c      **** uint8_t getShuntVoltage(uint8_t *v)
 119:INA226.c      **** {
 120:INA226.c      ****     uint8_t ret = readRegister(INA226_REG_SHUNTVOLTAGE, v, 2);
 121:INA226.c      ****     if (ret)
 122:INA226.c      ****     {
 123:INA226.c      ****         *v = 0;
 124:INA226.c      ****     }
 125:INA226.c      ****     return ret;
 126:INA226.c      **** }
 127:INA226.c      **** 
 128:INA226.c      **** /**
 129:INA226.c      ****  *   Returns the current through the shunt resistor
 130:INA226.c      ****  *
 131:INA226.c      ****  *   Parameters:
 132:INA226.c      ****  *   signed short &        current in mA
 133:INA226.c      ****  *
 134:INA226.c      ****  *   Returns:
 135:INA226.c      ****  *   unsigned char         0 success
 136:INA226.c      ****  *                         1 fail
 137:INA226.c      ****  */
 138:INA226.c      **** uint8_t getCurrent(uint8_t *c)
 139:INA226.c      **** {
 140:INA226.c      ****     uint8_t ret = readRegister(INA226_REG_CURRENT, c, 2);
 141:INA226.c      ****     *c/=8;
 142:INA226.c      ****     if (ret)
 143:INA226.c      ****     {
 144:INA226.c      ****         *c = 0;
ARM GAS  C:\Users\tsien\AppData\Local\Temp\cc4MCm62.s 			page 4


 145:INA226.c      ****     }
 146:INA226.c      ****     return ret;
 147:INA226.c      **** }
 148:INA226.c      **** 
 149:INA226.c      **** /**
 150:INA226.c      ****  *   Returns the power across the load in mW
 151:INA226.c      ****  *
 152:INA226.c      ****  *   Parameters:
 153:INA226.c      ****  *   unsigned short &      power in mW
 154:INA226.c      ****  *
 155:INA226.c      ****  *   Returns:
 156:INA226.c      ****  *   unsigned char         0 success
 157:INA226.c      ****  *                         1 fail
 158:INA226.c      ****  */
 159:INA226.c      **** uint8_t getPower(uint8_t *p)
 160:INA226.c      **** {
 161:INA226.c      ****     uint8_t ret = readRegister(INA226_REG_POWER, p, 2);
 162:INA226.c      ****     *p = (*p * 3) + (*p >> 3);
 163:INA226.c      ****     if (ret)
 164:INA226.c      ****     {
 165:INA226.c      ****         *p = 0;
 166:INA226.c      ****     }
 167:INA226.c      ****     return ret;
 168:INA226.c      **** }
 169:INA226.c      **** 
 170:INA226.c      **** // Returns the value of the selected internal register
 171:INA226.c      **** uint8_t readRegister(uint8_t reg, uint8_t *output, uint8_t cnt)
 172:INA226.c      **** {
  28              		.loc 1 172 0
  29              		.cfi_startproc
  30              		@ args = 0, pretend = 0, frame = 0
  31              		@ frame_needed = 0, uses_anonymous_args = 0
  32              	.LVL0:
  33 0000 F8B5     		push	{r3, r4, r5, r6, r7, lr}
  34              		.cfi_def_cfa_offset 24
  35              		.cfi_offset 3, -24
  36              		.cfi_offset 4, -20
  37              		.cfi_offset 5, -16
  38              		.cfi_offset 6, -12
  39              		.cfi_offset 7, -8
  40              		.cfi_offset 14, -4
  41 0002 0400     		movs	r4, r0
  42 0004 0F00     		movs	r7, r1
  43 0006 1500     		movs	r5, r2
 173:INA226.c      ****     INA226_I2C_I2CMasterClearStatus(); //clear the garbage
  44              		.loc 1 173 0
  45 0008 FFF7FEFF 		bl	INA226_I2C_I2CMasterClearStatus
  46              	.LVL1:
 174:INA226.c      **** 
 175:INA226.c      ****     int ms_timeout = 20;
 176:INA226.c      ****     uint32_t error = 0; // this is the "status" we usually use in our R/W functions
 177:INA226.c      **** 	uint8_t idx;
 178:INA226.c      **** 	error = INA226_I2C_I2CMasterSendStart(DEVICE_ADDR, INA226_I2C_I2C_WRITE_XFER_MODE, ms_timeout);
  47              		.loc 1 178 0
  48 000c 1422     		movs	r2, #20
  49 000e 0021     		movs	r1, #0
  50 0010 4020     		movs	r0, #64
ARM GAS  C:\Users\tsien\AppData\Local\Temp\cc4MCm62.s 			page 5


  51 0012 FFF7FEFF 		bl	INA226_I2C_I2CMasterSendStart
  52              	.LVL2:
 179:INA226.c      **** 	
 180:INA226.c      **** 	error = INA226_I2C_I2CMasterWriteByte(reg, ms_timeout);
  53              		.loc 1 180 0
  54 0016 1421     		movs	r1, #20
  55 0018 2000     		movs	r0, r4
  56 001a FFF7FEFF 		bl	INA226_I2C_I2CMasterWriteByte
  57              	.LVL3:
 181:INA226.c      **** 	
 182:INA226.c      **** 	error = INA226_I2C_I2CMasterSendStop(ms_timeout);
  58              		.loc 1 182 0
  59 001e 1420     		movs	r0, #20
  60 0020 FFF7FEFF 		bl	INA226_I2C_I2CMasterSendStop
  61              	.LVL4:
 183:INA226.c      **** 	
 184:INA226.c      **** 	error = INA226_I2C_I2CMasterSendStart(DEVICE_ADDR, INA226_I2C_I2C_READ_XFER_MODE, ms_timeout);
  62              		.loc 1 184 0
  63 0024 1422     		movs	r2, #20
  64 0026 0121     		movs	r1, #1
  65 0028 4020     		movs	r0, #64
  66 002a FFF7FEFF 		bl	INA226_I2C_I2CMasterSendStart
  67              	.LVL5:
  68 002e 0600     		movs	r6, r0
  69              	.LVL6:
 185:INA226.c      ****     //PrintInt(BNO055_iERROR);
 186:INA226.c      **** 	for (idx = 0; (idx < cnt) && (error == 0); idx++)
  70              		.loc 1 186 0
  71 0030 0024     		movs	r4, #0
  72 0032 0FE0     		b	.L2
  73              	.LVL7:
  74              	.L6:
 187:INA226.c      **** 	{
 188:INA226.c      ****         if (idx < cnt-1)
  75              		.loc 1 188 0
  76 0034 6B1E     		subs	r3, r5, #1
  77 0036 9C42     		cmp	r4, r3
  78 0038 05DA     		bge	.L3
 189:INA226.c      ****         {
 190:INA226.c      **** 		    INA226_I2C_I2CMasterReadByte(INA226_I2C_I2C_ACK_DATA, &output[idx], ms_timeout);
  79              		.loc 1 190 0
  80 003a 3919     		adds	r1, r7, r4
  81 003c 1422     		movs	r2, #20
  82 003e 0020     		movs	r0, #0
  83 0040 FFF7FEFF 		bl	INA226_I2C_I2CMasterReadByte
  84              	.LVL8:
  85 0044 04E0     		b	.L4
  86              	.L3:
 191:INA226.c      ****         }
 192:INA226.c      ****         else
 193:INA226.c      ****         {
 194:INA226.c      ****             INA226_I2C_I2CMasterReadByte(INA226_I2C_I2C_NAK_DATA, &output[idx], ms_timeout);
  87              		.loc 1 194 0
  88 0046 3919     		adds	r1, r7, r4
  89 0048 1422     		movs	r2, #20
  90 004a 0120     		movs	r0, #1
  91 004c FFF7FEFF 		bl	INA226_I2C_I2CMasterReadByte
ARM GAS  C:\Users\tsien\AppData\Local\Temp\cc4MCm62.s 			page 6


  92              	.LVL9:
  93              	.L4:
 186:INA226.c      **** 	{
  94              		.loc 1 186 0 discriminator 2
  95 0050 0134     		adds	r4, r4, #1
  96              	.LVL10:
  97 0052 E4B2     		uxtb	r4, r4
  98              	.LVL11:
  99              	.L2:
 186:INA226.c      **** 	{
 100              		.loc 1 186 0 is_stmt 0 discriminator 1
 101 0054 AC42     		cmp	r4, r5
 102 0056 01D2     		bcs	.L5
 186:INA226.c      **** 	{
 103              		.loc 1 186 0 discriminator 3
 104 0058 002E     		cmp	r6, #0
 105 005a EBD0     		beq	.L6
 106              	.L5:
 195:INA226.c      ****         }
 196:INA226.c      **** 	}
 197:INA226.c      **** 	// Check for BNO055_iERROR before proceeding
 198:INA226.c      **** 	error = INA226_I2C_I2CMasterSendStop(ms_timeout);
 107              		.loc 1 198 0 is_stmt 1
 108 005c 1420     		movs	r0, #20
 109 005e FFF7FEFF 		bl	INA226_I2C_I2CMasterSendStop
 110              	.LVL12:
 199:INA226.c      **** 
 200:INA226.c      **** 	return (uint8_t)error;
 111              		.loc 1 200 0
 112 0062 C0B2     		uxtb	r0, r0
 113              	.LVL13:
 201:INA226.c      **** }
 114              		.loc 1 201 0
 115              		@ sp needed
 116              	.LVL14:
 117              	.LVL15:
 118 0064 F8BD     		pop	{r3, r4, r5, r6, r7, pc}
 119              		.cfi_endproc
 120              	.LFE42:
 121              		.size	readRegister, .-readRegister
 122 0066 C046     		.section	.text.ping,"ax",%progbits
 123              		.align	2
 124              		.global	ping
 125              		.code	16
 126              		.thumb_func
 127              		.type	ping, %function
 128              	ping:
 129              	.LFB34:
  49:INA226.c      ****     uint8_t id[2];
 130              		.loc 1 49 0
 131              		.cfi_startproc
 132              		@ args = 0, pretend = 0, frame = 8
 133              		@ frame_needed = 0, uses_anonymous_args = 0
 134 0000 10B5     		push	{r4, lr}
 135              		.cfi_def_cfa_offset 8
 136              		.cfi_offset 4, -8
 137              		.cfi_offset 14, -4
ARM GAS  C:\Users\tsien\AppData\Local\Temp\cc4MCm62.s 			page 7


 138 0002 82B0     		sub	sp, sp, #8
 139              		.cfi_def_cfa_offset 16
  51:INA226.c      ****     return ((id[0] << 8) + id[1]);
 140              		.loc 1 51 0
 141 0004 01AC     		add	r4, sp, #4
 142 0006 0222     		movs	r2, #2
 143 0008 2100     		movs	r1, r4
 144 000a FF20     		movs	r0, #255
 145 000c FFF7FEFF 		bl	readRegister
 146              	.LVL16:
  52:INA226.c      **** }
 147              		.loc 1 52 0
 148 0010 6078     		ldrb	r0, [r4, #1]
  53:INA226.c      **** 
 149              		.loc 1 53 0
 150 0012 02B0     		add	sp, sp, #8
 151              		@ sp needed
 152 0014 10BD     		pop	{r4, pc}
 153              		.cfi_endproc
 154              	.LFE34:
 155              		.size	ping, .-ping
 156 0016 C046     		.section	.text.getVoltage,"ax",%progbits
 157              		.align	2
 158              		.global	getVoltage
 159              		.code	16
 160              		.thumb_func
 161              		.type	getVoltage, %function
 162              	getVoltage:
 163              	.LFB38:
  98:INA226.c      ****     uint8_t ret = readRegister(INA226_REG_BUSVOLTAGE, v, 2);
 164              		.loc 1 98 0
 165              		.cfi_startproc
 166              		@ args = 0, pretend = 0, frame = 0
 167              		@ frame_needed = 0, uses_anonymous_args = 0
 168              	.LVL17:
 169 0000 10B5     		push	{r4, lr}
 170              		.cfi_def_cfa_offset 8
 171              		.cfi_offset 4, -8
 172              		.cfi_offset 14, -4
 173 0002 0400     		movs	r4, r0
  99:INA226.c      ****     *v = *v + (*v >> 2);
 174              		.loc 1 99 0
 175 0004 0222     		movs	r2, #2
 176 0006 0100     		movs	r1, r0
 177 0008 0220     		movs	r0, #2
 178              	.LVL18:
 179 000a FFF7FEFF 		bl	readRegister
 180              	.LVL19:
 100:INA226.c      ****     if (ret)
 181              		.loc 1 100 0
 182 000e 2278     		ldrb	r2, [r4]
 183 0010 9308     		lsrs	r3, r2, #2
 184 0012 D318     		adds	r3, r2, r3
 185 0014 2370     		strb	r3, [r4]
 101:INA226.c      ****     {
 186              		.loc 1 101 0
 187 0016 0028     		cmp	r0, #0
ARM GAS  C:\Users\tsien\AppData\Local\Temp\cc4MCm62.s 			page 8


 188 0018 01D0     		beq	.L9
 103:INA226.c      ****     }
 189              		.loc 1 103 0
 190 001a 0023     		movs	r3, #0
 191 001c 2370     		strb	r3, [r4]
 192              	.L9:
 106:INA226.c      **** 
 193              		.loc 1 106 0
 194              		@ sp needed
 195              	.LVL20:
 196 001e 10BD     		pop	{r4, pc}
 197              		.cfi_endproc
 198              	.LFE38:
 199              		.size	getVoltage, .-getVoltage
 200              		.section	.text.getShuntVoltage,"ax",%progbits
 201              		.align	2
 202              		.global	getShuntVoltage
 203              		.code	16
 204              		.thumb_func
 205              		.type	getShuntVoltage, %function
 206              	getShuntVoltage:
 207              	.LFB39:
 119:INA226.c      ****     uint8_t ret = readRegister(INA226_REG_SHUNTVOLTAGE, v, 2);
 208              		.loc 1 119 0
 209              		.cfi_startproc
 210              		@ args = 0, pretend = 0, frame = 0
 211              		@ frame_needed = 0, uses_anonymous_args = 0
 212              	.LVL21:
 213 0000 10B5     		push	{r4, lr}
 214              		.cfi_def_cfa_offset 8
 215              		.cfi_offset 4, -8
 216              		.cfi_offset 14, -4
 217 0002 0400     		movs	r4, r0
 120:INA226.c      ****     if (ret)
 218              		.loc 1 120 0
 219 0004 0222     		movs	r2, #2
 220 0006 0100     		movs	r1, r0
 221 0008 0120     		movs	r0, #1
 222              	.LVL22:
 223 000a FFF7FEFF 		bl	readRegister
 224              	.LVL23:
 121:INA226.c      ****     {
 225              		.loc 1 121 0
 226 000e 0028     		cmp	r0, #0
 227 0010 01D0     		beq	.L11
 123:INA226.c      ****     }
 228              		.loc 1 123 0
 229 0012 0023     		movs	r3, #0
 230 0014 2370     		strb	r3, [r4]
 231              	.L11:
 126:INA226.c      **** 
 232              		.loc 1 126 0
 233              		@ sp needed
 234              	.LVL24:
 235 0016 10BD     		pop	{r4, pc}
 236              		.cfi_endproc
 237              	.LFE39:
ARM GAS  C:\Users\tsien\AppData\Local\Temp\cc4MCm62.s 			page 9


 238              		.size	getShuntVoltage, .-getShuntVoltage
 239              		.section	.text.getCurrent,"ax",%progbits
 240              		.align	2
 241              		.global	getCurrent
 242              		.code	16
 243              		.thumb_func
 244              		.type	getCurrent, %function
 245              	getCurrent:
 246              	.LFB40:
 139:INA226.c      ****     uint8_t ret = readRegister(INA226_REG_CURRENT, c, 2);
 247              		.loc 1 139 0
 248              		.cfi_startproc
 249              		@ args = 0, pretend = 0, frame = 0
 250              		@ frame_needed = 0, uses_anonymous_args = 0
 251              	.LVL25:
 252 0000 10B5     		push	{r4, lr}
 253              		.cfi_def_cfa_offset 8
 254              		.cfi_offset 4, -8
 255              		.cfi_offset 14, -4
 256 0002 0400     		movs	r4, r0
 140:INA226.c      ****     *c/=8;
 257              		.loc 1 140 0
 258 0004 0222     		movs	r2, #2
 259 0006 0100     		movs	r1, r0
 260 0008 0420     		movs	r0, #4
 261              	.LVL26:
 262 000a FFF7FEFF 		bl	readRegister
 263              	.LVL27:
 141:INA226.c      ****     if (ret)
 264              		.loc 1 141 0
 265 000e 2378     		ldrb	r3, [r4]
 266 0010 DB08     		lsrs	r3, r3, #3
 267 0012 2370     		strb	r3, [r4]
 142:INA226.c      ****     {
 268              		.loc 1 142 0
 269 0014 0028     		cmp	r0, #0
 270 0016 01D0     		beq	.L13
 144:INA226.c      ****     }
 271              		.loc 1 144 0
 272 0018 0023     		movs	r3, #0
 273 001a 2370     		strb	r3, [r4]
 274              	.L13:
 147:INA226.c      **** 
 275              		.loc 1 147 0
 276              		@ sp needed
 277              	.LVL28:
 278 001c 10BD     		pop	{r4, pc}
 279              		.cfi_endproc
 280              	.LFE40:
 281              		.size	getCurrent, .-getCurrent
 282 001e C046     		.section	.text.getPower,"ax",%progbits
 283              		.align	2
 284              		.global	getPower
 285              		.code	16
 286              		.thumb_func
 287              		.type	getPower, %function
 288              	getPower:
ARM GAS  C:\Users\tsien\AppData\Local\Temp\cc4MCm62.s 			page 10


 289              	.LFB41:
 160:INA226.c      ****     uint8_t ret = readRegister(INA226_REG_POWER, p, 2);
 290              		.loc 1 160 0
 291              		.cfi_startproc
 292              		@ args = 0, pretend = 0, frame = 0
 293              		@ frame_needed = 0, uses_anonymous_args = 0
 294              	.LVL29:
 295 0000 10B5     		push	{r4, lr}
 296              		.cfi_def_cfa_offset 8
 297              		.cfi_offset 4, -8
 298              		.cfi_offset 14, -4
 299 0002 0400     		movs	r4, r0
 161:INA226.c      ****     *p = (*p * 3) + (*p >> 3);
 300              		.loc 1 161 0
 301 0004 0222     		movs	r2, #2
 302 0006 0100     		movs	r1, r0
 303 0008 0320     		movs	r0, #3
 304              	.LVL30:
 305 000a FFF7FEFF 		bl	readRegister
 306              	.LVL31:
 162:INA226.c      ****     if (ret)
 307              		.loc 1 162 0
 308 000e 2378     		ldrb	r3, [r4]
 309 0010 5A00     		lsls	r2, r3, #1
 310 0012 9A18     		adds	r2, r3, r2
 311 0014 DB08     		lsrs	r3, r3, #3
 312 0016 D318     		adds	r3, r2, r3
 313 0018 2370     		strb	r3, [r4]
 163:INA226.c      ****     {
 314              		.loc 1 163 0
 315 001a 0028     		cmp	r0, #0
 316 001c 01D0     		beq	.L15
 165:INA226.c      ****     }
 317              		.loc 1 165 0
 318 001e 0023     		movs	r3, #0
 319 0020 2370     		strb	r3, [r4]
 320              	.L15:
 168:INA226.c      **** 
 321              		.loc 1 168 0
 322              		@ sp needed
 323              	.LVL32:
 324 0022 10BD     		pop	{r4, pc}
 325              		.cfi_endproc
 326              	.LFE41:
 327              		.size	getPower, .-getPower
 328              		.section	.text.writeRegister,"ax",%progbits
 329              		.align	2
 330              		.global	writeRegister
 331              		.code	16
 332              		.thumb_func
 333              		.type	writeRegister, %function
 334              	writeRegister:
 335              	.LFB43:
 202:INA226.c      **** 
 203:INA226.c      **** //Sets the value of the selected internal register
 204:INA226.c      **** uint8_t writeRegister(uint8_t reg, uint8_t *data, uint8_t cnt)
 205:INA226.c      **** {
ARM GAS  C:\Users\tsien\AppData\Local\Temp\cc4MCm62.s 			page 11


 336              		.loc 1 205 0
 337              		.cfi_startproc
 338              		@ args = 0, pretend = 0, frame = 0
 339              		@ frame_needed = 1, uses_anonymous_args = 0
 340              	.LVL33:
 341 0000 F8B5     		push	{r3, r4, r5, r6, r7, lr}
 342              		.cfi_def_cfa_offset 24
 343              		.cfi_offset 3, -24
 344              		.cfi_offset 4, -20
 345              		.cfi_offset 5, -16
 346              		.cfi_offset 6, -12
 347              		.cfi_offset 7, -8
 348              		.cfi_offset 14, -4
 349 0002 00AF     		add	r7, sp, #0
 350              		.cfi_def_cfa_register 7
 351 0004 0400     		movs	r4, r0
 352 0006 0E00     		movs	r6, r1
 353 0008 1500     		movs	r5, r2
 206:INA226.c      ****     
 207:INA226.c      ****     INA226_I2C_I2CMasterClearStatus(); //clear the garbage
 354              		.loc 1 207 0
 355 000a FFF7FEFF 		bl	INA226_I2C_I2CMasterClearStatus
 356              	.LVL34:
 208:INA226.c      ****     uint8_t data_pack[cnt + 1];
 357              		.loc 1 208 0
 358 000e 2B00     		movs	r3, r5
 359 0010 0833     		adds	r3, r3, #8
 360 0012 DB08     		lsrs	r3, r3, #3
 361 0014 DB00     		lsls	r3, r3, #3
 362 0016 6A46     		mov	r2, sp
 363 0018 D31A     		subs	r3, r2, r3
 364 001a 9D46     		mov	sp, r3
 365              	.LVL35:
 209:INA226.c      ****     data_pack[0] = reg;
 366              		.loc 1 209 0
 367 001c 1C70     		strb	r4, [r3]
 210:INA226.c      ****     data_pack[1] = data[0];
 368              		.loc 1 210 0
 369 001e 3278     		ldrb	r2, [r6]
 370 0020 5A70     		strb	r2, [r3, #1]
 211:INA226.c      ****     data_pack[2] = data[1];
 371              		.loc 1 211 0
 372 0022 7278     		ldrb	r2, [r6, #1]
 373 0024 9A70     		strb	r2, [r3, #2]
 212:INA226.c      ****     
 213:INA226.c      ****     int status = INA226_I2C_I2CMasterWriteBuf(DEVICE_ADDR, data_pack, cnt, INA226_I2C_I2C_MODE_COMP
 374              		.loc 1 213 0
 375 0026 0023     		movs	r3, #0
 376              	.LVL36:
 377 0028 2A00     		movs	r2, r5
 378 002a 6946     		mov	r1, sp
 379 002c 4020     		movs	r0, #64
 380 002e FFF7FEFF 		bl	INA226_I2C_I2CMasterWriteBuf
 381              	.LVL37:
 382 0032 0500     		movs	r5, r0
 383              	.LVL38:
 214:INA226.c      ****     while ((INA226_I2C_I2CMasterStatus() & INA226_I2C_I2C_MSTAT_WR_CMPLT) == 0u) //should wait for 
ARM GAS  C:\Users\tsien\AppData\Local\Temp\cc4MCm62.s 			page 12


 384              		.loc 1 214 0
 385 0034 09E0     		b	.L17
 386              	.LVL39:
 387              	.L18:
 215:INA226.c      ****     {
 216:INA226.c      ****         Print("\r\nWRITE TO: \n\r");
 388              		.loc 1 216 0
 389 0036 0848     		ldr	r0, .L19
 390 0038 FFF7FEFF 		bl	DBG_UART_UartPutString
 391              	.LVL40:
 217:INA226.c      ****         PrintInt(reg);
 392              		.loc 1 217 0
 393 003c 0A22     		movs	r2, #10
 394 003e 0749     		ldr	r1, .L19+4
 395 0040 2000     		movs	r0, r4
 396 0042 FFF7FEFF 		bl	itoa
 397              	.LVL41:
 398 0046 FFF7FEFF 		bl	DBG_UART_UartPutString
 399              	.LVL42:
 400              	.L17:
 214:INA226.c      ****     while ((INA226_I2C_I2CMasterStatus() & INA226_I2C_I2C_MSTAT_WR_CMPLT) == 0u) //should wait for 
 401              		.loc 1 214 0
 402 004a FFF7FEFF 		bl	INA226_I2C_I2CMasterStatus
 403              	.LVL43:
 404 004e 8307     		lsls	r3, r0, #30
 405 0050 F1D5     		bpl	.L18
 218:INA226.c      ****     }
 219:INA226.c      **** 	return status;  
 406              		.loc 1 219 0
 407 0052 E8B2     		uxtb	r0, r5
 220:INA226.c      **** }
 408              		.loc 1 220 0
 409 0054 BD46     		mov	sp, r7
 410              	.LVL44:
 411              		@ sp needed
 412              	.LVL45:
 413              	.LVL46:
 414 0056 F8BD     		pop	{r3, r4, r5, r6, r7, pc}
 415              	.L20:
 416              		.align	2
 417              	.L19:
 418 0058 00000000 		.word	.LC0
 419 005c 00000000 		.word	debugOutput
 420              		.cfi_endproc
 421              	.LFE43:
 422              		.size	writeRegister, .-writeRegister
 423              		.section	.text.reset,"ax",%progbits
 424              		.align	2
 425              		.global	reset
 426              		.code	16
 427              		.thumb_func
 428              		.type	reset, %function
 429              	reset:
 430              	.LFB33:
  34:INA226.c      ****    uint8_t data[2];
 431              		.loc 1 34 0
 432              		.cfi_startproc
ARM GAS  C:\Users\tsien\AppData\Local\Temp\cc4MCm62.s 			page 13


 433              		@ args = 0, pretend = 0, frame = 8
 434              		@ frame_needed = 0, uses_anonymous_args = 0
 435 0000 00B5     		push	{lr}
 436              		.cfi_def_cfa_offset 4
 437              		.cfi_offset 14, -4
 438 0002 83B0     		sub	sp, sp, #12
 439              		.cfi_def_cfa_offset 16
  36:INA226.c      ****    data[1] = 0;  //INA226_RESET;
 440              		.loc 1 36 0
 441 0004 01A9     		add	r1, sp, #4
 442 0006 8023     		movs	r3, #128
 443 0008 0B70     		strb	r3, [r1]
  37:INA226.c      ****    return writeRegister(INA226_REG_CONFIG, data, 2);
 444              		.loc 1 37 0
 445 000a 0023     		movs	r3, #0
 446 000c 4B70     		strb	r3, [r1, #1]
  38:INA226.c      **** }
 447              		.loc 1 38 0
 448 000e 0222     		movs	r2, #2
 449 0010 0020     		movs	r0, #0
 450 0012 FFF7FEFF 		bl	writeRegister
 451              	.LVL47:
  39:INA226.c      **** 
 452              		.loc 1 39 0
 453 0016 03B0     		add	sp, sp, #12
 454              		@ sp needed
 455 0018 00BD     		pop	{pc}
 456              		.cfi_endproc
 457              	.LFE33:
 458              		.size	reset, .-reset
 459              		.global	__aeabi_idiv
 460 001a C046     		.section	.text.setShuntResistor,"ax",%progbits
 461              		.align	2
 462              		.global	setShuntResistor
 463              		.code	16
 464              		.thumb_func
 465              		.type	setShuntResistor, %function
 466              	setShuntResistor:
 467              	.LFB35:
  66:INA226.c      ****     uint8_t data[2];
 468              		.loc 1 66 0
 469              		.cfi_startproc
 470              		@ args = 0, pretend = 0, frame = 8
 471              		@ frame_needed = 0, uses_anonymous_args = 0
 472              	.LVL48:
 473 0000 00B5     		push	{lr}
 474              		.cfi_def_cfa_offset 4
 475              		.cfi_offset 14, -4
 476 0002 83B0     		sub	sp, sp, #12
 477              		.cfi_def_cfa_offset 16
 478 0004 0100     		movs	r1, r0
  68:INA226.c      ****     data[1] = INA226_CALIBRATION_REF / shunt;
 479              		.loc 1 68 0
 480 0006 A020     		movs	r0, #160
 481              	.LVL49:
 482 0008 0002     		lsls	r0, r0, #8
 483 000a FFF7FEFF 		bl	__aeabi_idiv
ARM GAS  C:\Users\tsien\AppData\Local\Temp\cc4MCm62.s 			page 14


 484              	.LVL50:
 485 000e 0312     		asrs	r3, r0, #8
 486 0010 01A9     		add	r1, sp, #4
 487 0012 0B70     		strb	r3, [r1]
  69:INA226.c      ****     return writeRegister(INA226_REG_CALIBRATION, data, 2);
 488              		.loc 1 69 0
 489 0014 4870     		strb	r0, [r1, #1]
  70:INA226.c      **** }
 490              		.loc 1 70 0
 491 0016 0222     		movs	r2, #2
 492 0018 0520     		movs	r0, #5
 493 001a FFF7FEFF 		bl	writeRegister
 494              	.LVL51:
  71:INA226.c      **** 
 495              		.loc 1 71 0
 496 001e 03B0     		add	sp, sp, #12
 497              		@ sp needed
 498 0020 00BD     		pop	{pc}
 499              		.cfi_endproc
 500              	.LFE35:
 501              		.size	setShuntResistor, .-setShuntResistor
 502 0022 C046     		.section	.text.init_INA226,"ax",%progbits
 503              		.align	2
 504              		.global	init_INA226
 505              		.code	16
 506              		.thumb_func
 507              		.type	init_INA226, %function
 508              	init_INA226:
 509              	.LFB32:
  19:INA226.c      ****     INA226_I2C_Start();
 510              		.loc 1 19 0
 511              		.cfi_startproc
 512              		@ args = 0, pretend = 0, frame = 0
 513              		@ frame_needed = 0, uses_anonymous_args = 0
 514 0000 10B5     		push	{r4, lr}
 515              		.cfi_def_cfa_offset 8
 516              		.cfi_offset 4, -8
 517              		.cfi_offset 14, -4
  20:INA226.c      ****     reset();
 518              		.loc 1 20 0
 519 0002 FFF7FEFF 		bl	INA226_I2C_Start
 520              	.LVL52:
  21:INA226.c      ****     setShuntResistor(100);
 521              		.loc 1 21 0
 522 0006 FFF7FEFF 		bl	reset
 523              	.LVL53:
  22:INA226.c      ****     return ping();
 524              		.loc 1 22 0
 525 000a 6420     		movs	r0, #100
 526 000c FFF7FEFF 		bl	setShuntResistor
 527              	.LVL54:
  23:INA226.c      **** }
 528              		.loc 1 23 0
 529 0010 FFF7FEFF 		bl	ping
 530              	.LVL55:
  24:INA226.c      **** 
 531              		.loc 1 24 0
ARM GAS  C:\Users\tsien\AppData\Local\Temp\cc4MCm62.s 			page 15


 532              		@ sp needed
 533 0014 10BD     		pop	{r4, pc}
 534              		.cfi_endproc
 535              	.LFE32:
 536              		.size	init_INA226, .-init_INA226
 537              		.global	__aeabi_i2d
 538              		.global	__aeabi_dmul
 539              		.global	__aeabi_d2uiz
 540 0016 C046     		.section	.text.setAlertLimitBusVoltage,"ax",%progbits
 541              		.align	2
 542              		.global	setAlertLimitBusVoltage
 543              		.code	16
 544              		.thumb_func
 545              		.type	setAlertLimitBusVoltage, %function
 546              	setAlertLimitBusVoltage:
 547              	.LFB36:
  74:INA226.c      ****     uint8_t data[1];
 548              		.loc 1 74 0
 549              		.cfi_startproc
 550              		@ args = 0, pretend = 0, frame = 8
 551              		@ frame_needed = 0, uses_anonymous_args = 0
 552              	.LVL56:
 553 0000 00B5     		push	{lr}
 554              		.cfi_def_cfa_offset 4
 555              		.cfi_offset 14, -4
 556 0002 83B0     		sub	sp, sp, #12
 557              		.cfi_def_cfa_offset 16
  76:INA226.c      ****     return writeRegister(INA226_REG_ALERTLIMIT, data, 1);  //translate voltage to whole decimal (/2
 558              		.loc 1 76 0
 559 0004 FFF7FEFF 		bl	__aeabi_i2d
 560              	.LVL57:
 561 0008 064A     		ldr	r2, .L25
 562 000a 074B     		ldr	r3, .L25+4
 563 000c FFF7FEFF 		bl	__aeabi_dmul
 564              	.LVL58:
 565 0010 FFF7FEFF 		bl	__aeabi_d2uiz
 566              	.LVL59:
 567 0014 01A9     		add	r1, sp, #4
 568 0016 0870     		strb	r0, [r1]
  77:INA226.c      **** }
 569              		.loc 1 77 0
 570 0018 0122     		movs	r2, #1
 571 001a 0720     		movs	r0, #7
 572 001c FFF7FEFF 		bl	writeRegister
 573              	.LVL60:
  78:INA226.c      **** 
 574              		.loc 1 78 0
 575 0020 03B0     		add	sp, sp, #12
 576              		@ sp needed
 577 0022 00BD     		pop	{pc}
 578              	.L26:
 579              		.align	2
 580              	.L25:
 581 0024 9A999999 		.word	-1717986918
 582 0028 9999E93F 		.word	1072273817
 583              		.cfi_endproc
 584              	.LFE36:
ARM GAS  C:\Users\tsien\AppData\Local\Temp\cc4MCm62.s 			page 16


 585              		.size	setAlertLimitBusVoltage, .-setAlertLimitBusVoltage
 586              		.section	.text.setAlertEnableBusUnderVoltage,"ax",%progbits
 587              		.align	2
 588              		.global	setAlertEnableBusUnderVoltage
 589              		.code	16
 590              		.thumb_func
 591              		.type	setAlertEnableBusUnderVoltage, %function
 592              	setAlertEnableBusUnderVoltage:
 593              	.LFB37:
  81:INA226.c      ****     uint8_t data[2];
 594              		.loc 1 81 0
 595              		.cfi_startproc
 596              		@ args = 0, pretend = 0, frame = 8
 597              		@ frame_needed = 0, uses_anonymous_args = 0
 598 0000 00B5     		push	{lr}
 599              		.cfi_def_cfa_offset 4
 600              		.cfi_offset 14, -4
 601 0002 83B0     		sub	sp, sp, #12
 602              		.cfi_def_cfa_offset 16
  83:INA226.c      ****     data[1] = 0;  //INA226_BIT_BUL;
 603              		.loc 1 83 0
 604 0004 01A9     		add	r1, sp, #4
 605 0006 1023     		movs	r3, #16
 606 0008 0B70     		strb	r3, [r1]
  84:INA226.c      ****     return writeRegister(INA226_REG_MASKENABLE, data, 2);
 607              		.loc 1 84 0
 608 000a 0023     		movs	r3, #0
 609 000c 4B70     		strb	r3, [r1, #1]
  85:INA226.c      **** }
 610              		.loc 1 85 0
 611 000e 0222     		movs	r2, #2
 612 0010 0620     		movs	r0, #6
 613 0012 FFF7FEFF 		bl	writeRegister
 614              	.LVL61:
  86:INA226.c      **** /**
 615              		.loc 1 86 0
 616 0016 03B0     		add	sp, sp, #12
 617              		@ sp needed
 618 0018 00BD     		pop	{pc}
 619              		.cfi_endproc
 620              	.LFE37:
 621              		.size	setAlertEnableBusUnderVoltage, .-setAlertEnableBusUnderVoltage
 622              		.comm	address,1,1
 623              		.comm	debugOutput,32,4
 624 001a C046     		.section	.rodata.str1.4,"aMS",%progbits,1
 625              		.align	2
 626              	.LC0:
 627 0000 0D0A5752 		.ascii	"\015\012WRITE TO: \012\015\000"
 627      49544520 
 627      544F3A20 
 627      0A0D00
 628              		.text
 629              	.Letext0:
 630              		.file 2 "c:\\program files (x86)\\cypress\\psoc creator\\4.4\\psoc creator\\import\\gnu\\arm\\5.4.
 631              		.file 3 "c:\\program files (x86)\\cypress\\psoc creator\\4.4\\psoc creator\\import\\gnu\\arm\\5.4.
 632              		.file 4 "Generated_Source\\PSoC4/cytypes.h"
 633              		.file 5 "./INA226.h"
ARM GAS  C:\Users\tsien\AppData\Local\Temp\cc4MCm62.s 			page 17


 634              		.file 6 "Generated_Source\\PSoC4/INA226_I2C_I2C.h"
 635              		.file 7 "Generated_Source\\PSoC4/DBG_UART_SPI_UART.h"
 636              		.file 8 "c:\\program files (x86)\\cypress\\psoc creator\\4.4\\psoc creator\\import\\gnu\\arm\\5.4.
 637              		.file 9 "Generated_Source\\PSoC4/INA226_I2C.h"