ARM GAS  C:\Users\tsien\AppData\Local\Temp\ccCO1WSq.s 			page 1


   1              		.syntax unified
   2              		.cpu cortex-m0
   3              		.fpu softvfp
   4              		.eabi_attribute 20, 1
   5              		.eabi_attribute 21, 1
   6              		.eabi_attribute 23, 3
   7              		.eabi_attribute 24, 1
   8              		.eabi_attribute 25, 1
   9              		.eabi_attribute 26, 1
  10              		.eabi_attribute 30, 1
  11              		.eabi_attribute 34, 0
  12              		.eabi_attribute 18, 4
  13              		.thumb
  14              		.syntax unified
  15              		.file	"Jetty_I2C.c"
  16              		.text
  17              	.Ltext0:
  18              		.cfi_sections	.debug_frame
  19              		.section	.text.Jetty_I2CInit,"ax",%progbits
  20              		.align	2
  21              		.global	Jetty_I2CInit
  22              		.code	16
  23              		.thumb_func
  24              		.type	Jetty_I2CInit, %function
  25              	Jetty_I2CInit:
  26              	.LFB0:
  27              		.file 1 "Generated_Source\\PSoC4\\Jetty_I2C.c"
   1:Generated_Source\PSoC4/Jetty_I2C.c **** /***************************************************************************//**
   2:Generated_Source\PSoC4/Jetty_I2C.c **** * \file Jetty_I2C.c
   3:Generated_Source\PSoC4/Jetty_I2C.c **** * \version 4.0
   4:Generated_Source\PSoC4/Jetty_I2C.c **** *
   5:Generated_Source\PSoC4/Jetty_I2C.c **** * \brief
   6:Generated_Source\PSoC4/Jetty_I2C.c **** *  This file provides the source code to the API for the SCB Component in
   7:Generated_Source\PSoC4/Jetty_I2C.c **** *  I2C mode.
   8:Generated_Source\PSoC4/Jetty_I2C.c **** *
   9:Generated_Source\PSoC4/Jetty_I2C.c **** * Note:
  10:Generated_Source\PSoC4/Jetty_I2C.c **** *
  11:Generated_Source\PSoC4/Jetty_I2C.c **** *******************************************************************************
  12:Generated_Source\PSoC4/Jetty_I2C.c **** * \copyright
  13:Generated_Source\PSoC4/Jetty_I2C.c **** * Copyright 2013-2017, Cypress Semiconductor Corporation.  All rights reserved.
  14:Generated_Source\PSoC4/Jetty_I2C.c **** * You may use this file only in accordance with the license, terms, conditions,
  15:Generated_Source\PSoC4/Jetty_I2C.c **** * disclaimers, and limitations in the end user license agreement accompanying
  16:Generated_Source\PSoC4/Jetty_I2C.c **** * the software package with which this file was provided.
  17:Generated_Source\PSoC4/Jetty_I2C.c **** *******************************************************************************/
  18:Generated_Source\PSoC4/Jetty_I2C.c **** 
  19:Generated_Source\PSoC4/Jetty_I2C.c **** #include "Jetty_PVT.h"
  20:Generated_Source\PSoC4/Jetty_I2C.c **** #include "Jetty_I2C_PVT.h"
  21:Generated_Source\PSoC4/Jetty_I2C.c **** 
  22:Generated_Source\PSoC4/Jetty_I2C.c **** 
  23:Generated_Source\PSoC4/Jetty_I2C.c **** /***************************************
  24:Generated_Source\PSoC4/Jetty_I2C.c **** *      I2C Private Vars
  25:Generated_Source\PSoC4/Jetty_I2C.c **** ***************************************/
  26:Generated_Source\PSoC4/Jetty_I2C.c **** 
  27:Generated_Source\PSoC4/Jetty_I2C.c **** volatile uint8 Jetty_state;  /* Current state of I2C FSM */
  28:Generated_Source\PSoC4/Jetty_I2C.c **** 
  29:Generated_Source\PSoC4/Jetty_I2C.c **** #if(Jetty_SCB_MODE_UNCONFIG_CONST_CFG)
  30:Generated_Source\PSoC4/Jetty_I2C.c **** 
ARM GAS  C:\Users\tsien\AppData\Local\Temp\ccCO1WSq.s 			page 2


  31:Generated_Source\PSoC4/Jetty_I2C.c ****     /***************************************
  32:Generated_Source\PSoC4/Jetty_I2C.c ****     *  Configuration Structure Initialization
  33:Generated_Source\PSoC4/Jetty_I2C.c ****     ***************************************/
  34:Generated_Source\PSoC4/Jetty_I2C.c **** 
  35:Generated_Source\PSoC4/Jetty_I2C.c ****     /* Constant configuration of I2C */
  36:Generated_Source\PSoC4/Jetty_I2C.c ****     const Jetty_I2C_INIT_STRUCT Jetty_configI2C =
  37:Generated_Source\PSoC4/Jetty_I2C.c ****     {
  38:Generated_Source\PSoC4/Jetty_I2C.c ****         Jetty_I2C_MODE,
  39:Generated_Source\PSoC4/Jetty_I2C.c ****         Jetty_I2C_OVS_FACTOR_LOW,
  40:Generated_Source\PSoC4/Jetty_I2C.c ****         Jetty_I2C_OVS_FACTOR_HIGH,
  41:Generated_Source\PSoC4/Jetty_I2C.c ****         Jetty_I2C_MEDIAN_FILTER_ENABLE,
  42:Generated_Source\PSoC4/Jetty_I2C.c ****         Jetty_I2C_SLAVE_ADDRESS,
  43:Generated_Source\PSoC4/Jetty_I2C.c ****         Jetty_I2C_SLAVE_ADDRESS_MASK,
  44:Generated_Source\PSoC4/Jetty_I2C.c ****         Jetty_I2C_ACCEPT_ADDRESS,
  45:Generated_Source\PSoC4/Jetty_I2C.c ****         Jetty_I2C_WAKE_ENABLE,
  46:Generated_Source\PSoC4/Jetty_I2C.c ****         Jetty_I2C_BYTE_MODE_ENABLE,
  47:Generated_Source\PSoC4/Jetty_I2C.c ****         Jetty_I2C_DATA_RATE,
  48:Generated_Source\PSoC4/Jetty_I2C.c ****         Jetty_I2C_ACCEPT_GENERAL_CALL,
  49:Generated_Source\PSoC4/Jetty_I2C.c ****     };
  50:Generated_Source\PSoC4/Jetty_I2C.c **** 
  51:Generated_Source\PSoC4/Jetty_I2C.c ****     /*******************************************************************************
  52:Generated_Source\PSoC4/Jetty_I2C.c ****     * Function Name: Jetty_I2CInit
  53:Generated_Source\PSoC4/Jetty_I2C.c ****     ****************************************************************************//**
  54:Generated_Source\PSoC4/Jetty_I2C.c ****     *
  55:Generated_Source\PSoC4/Jetty_I2C.c ****     *
  56:Generated_Source\PSoC4/Jetty_I2C.c ****     *  Configures the Jetty for I2C operation.
  57:Generated_Source\PSoC4/Jetty_I2C.c ****     *
  58:Generated_Source\PSoC4/Jetty_I2C.c ****     *  This function is intended specifically to be used when the Jetty 
  59:Generated_Source\PSoC4/Jetty_I2C.c ****     *  configuration is set to “Unconfigured Jetty” in the customizer. 
  60:Generated_Source\PSoC4/Jetty_I2C.c ****     *  After initializing the Jetty in I2C mode using this function, 
  61:Generated_Source\PSoC4/Jetty_I2C.c ****     *  the component can be enabled using the Jetty_Start() or 
  62:Generated_Source\PSoC4/Jetty_I2C.c ****     * Jetty_Enable() function.
  63:Generated_Source\PSoC4/Jetty_I2C.c ****     *  This function uses a pointer to a structure that provides the configuration 
  64:Generated_Source\PSoC4/Jetty_I2C.c ****     *  settings. This structure contains the same information that would otherwise 
  65:Generated_Source\PSoC4/Jetty_I2C.c ****     *  be provided by the customizer settings.
  66:Generated_Source\PSoC4/Jetty_I2C.c ****     *
  67:Generated_Source\PSoC4/Jetty_I2C.c ****     *  \param config: pointer to a structure that contains the following list of 
  68:Generated_Source\PSoC4/Jetty_I2C.c ****     *   fields. These fields match the selections available in the customizer. 
  69:Generated_Source\PSoC4/Jetty_I2C.c ****     *   Refer to the customizer for further description of the settings.
  70:Generated_Source\PSoC4/Jetty_I2C.c ****     *
  71:Generated_Source\PSoC4/Jetty_I2C.c ****     *******************************************************************************/
  72:Generated_Source\PSoC4/Jetty_I2C.c ****     void Jetty_I2CInit(const Jetty_I2C_INIT_STRUCT *config)
  73:Generated_Source\PSoC4/Jetty_I2C.c ****     {
  74:Generated_Source\PSoC4/Jetty_I2C.c ****         uint32 medianFilter;
  75:Generated_Source\PSoC4/Jetty_I2C.c ****         uint32 locEnableWake;
  76:Generated_Source\PSoC4/Jetty_I2C.c **** 
  77:Generated_Source\PSoC4/Jetty_I2C.c ****         if(NULL == config)
  78:Generated_Source\PSoC4/Jetty_I2C.c ****         {
  79:Generated_Source\PSoC4/Jetty_I2C.c ****             CYASSERT(0u != 0u); /* Halt execution due to bad function parameter */
  80:Generated_Source\PSoC4/Jetty_I2C.c ****         }
  81:Generated_Source\PSoC4/Jetty_I2C.c ****         else
  82:Generated_Source\PSoC4/Jetty_I2C.c ****         {
  83:Generated_Source\PSoC4/Jetty_I2C.c ****             /* Configure pins */
  84:Generated_Source\PSoC4/Jetty_I2C.c ****             Jetty_SetPins(Jetty_SCB_MODE_I2C, Jetty_DUMMY_PARAM,
  85:Generated_Source\PSoC4/Jetty_I2C.c ****                                      Jetty_DUMMY_PARAM);
  86:Generated_Source\PSoC4/Jetty_I2C.c **** 
  87:Generated_Source\PSoC4/Jetty_I2C.c ****             /* Store internal configuration */
ARM GAS  C:\Users\tsien\AppData\Local\Temp\ccCO1WSq.s 			page 3


  88:Generated_Source\PSoC4/Jetty_I2C.c ****             Jetty_scbMode       = (uint8) Jetty_SCB_MODE_I2C;
  89:Generated_Source\PSoC4/Jetty_I2C.c ****             Jetty_scbEnableWake = (uint8) config->enableWake;
  90:Generated_Source\PSoC4/Jetty_I2C.c ****             Jetty_scbEnableIntr = (uint8) Jetty_SCB_IRQ_INTERNAL;
  91:Generated_Source\PSoC4/Jetty_I2C.c **** 
  92:Generated_Source\PSoC4/Jetty_I2C.c ****             Jetty_mode          = (uint8) config->mode;
  93:Generated_Source\PSoC4/Jetty_I2C.c ****             Jetty_acceptAddr    = (uint8) config->acceptAddr;
  94:Generated_Source\PSoC4/Jetty_I2C.c **** 
  95:Generated_Source\PSoC4/Jetty_I2C.c ****         #if (Jetty_CY_SCBIP_V0)
  96:Generated_Source\PSoC4/Jetty_I2C.c ****             /* Adjust SDA filter settings. Ticket ID#150521 */
  97:Generated_Source\PSoC4/Jetty_I2C.c ****             Jetty_SET_I2C_CFG_SDA_FILT_TRIM(Jetty_EC_AM_I2C_CFG_SDA_FILT_TRIM);
  98:Generated_Source\PSoC4/Jetty_I2C.c ****         #endif /* (Jetty_CY_SCBIP_V0) */
  99:Generated_Source\PSoC4/Jetty_I2C.c **** 
 100:Generated_Source\PSoC4/Jetty_I2C.c ****             /* Adjust AF and DF filter settings. Ticket ID#176179 */
 101:Generated_Source\PSoC4/Jetty_I2C.c ****             if (((Jetty_I2C_MODE_SLAVE != config->mode) &&
 102:Generated_Source\PSoC4/Jetty_I2C.c ****                  (config->dataRate <= Jetty_I2C_DATA_RATE_FS_MODE_MAX)) ||
 103:Generated_Source\PSoC4/Jetty_I2C.c ****                  (Jetty_I2C_MODE_SLAVE == config->mode))
 104:Generated_Source\PSoC4/Jetty_I2C.c ****             {
 105:Generated_Source\PSoC4/Jetty_I2C.c ****                 /* AF = 1, DF = 0 */
 106:Generated_Source\PSoC4/Jetty_I2C.c ****                 Jetty_I2C_CFG_ANALOG_FITER_ENABLE;
 107:Generated_Source\PSoC4/Jetty_I2C.c ****                 medianFilter = Jetty_DIGITAL_FILTER_DISABLE;
 108:Generated_Source\PSoC4/Jetty_I2C.c ****             }
 109:Generated_Source\PSoC4/Jetty_I2C.c ****             else
 110:Generated_Source\PSoC4/Jetty_I2C.c ****             {
 111:Generated_Source\PSoC4/Jetty_I2C.c ****                 /* AF = 0, DF = 1 */
 112:Generated_Source\PSoC4/Jetty_I2C.c ****                 Jetty_I2C_CFG_ANALOG_FITER_DISABLE;
 113:Generated_Source\PSoC4/Jetty_I2C.c ****                 medianFilter = Jetty_DIGITAL_FILTER_ENABLE;
 114:Generated_Source\PSoC4/Jetty_I2C.c ****             }
 115:Generated_Source\PSoC4/Jetty_I2C.c **** 
 116:Generated_Source\PSoC4/Jetty_I2C.c ****         #if (!Jetty_CY_SCBIP_V0)
 117:Generated_Source\PSoC4/Jetty_I2C.c ****             locEnableWake = (Jetty_I2C_MULTI_MASTER_SLAVE) ? (0u) : (config->enableWake);
 118:Generated_Source\PSoC4/Jetty_I2C.c ****         #else
 119:Generated_Source\PSoC4/Jetty_I2C.c ****             locEnableWake = config->enableWake;
 120:Generated_Source\PSoC4/Jetty_I2C.c ****         #endif /* (!Jetty_CY_SCBIP_V0) */
 121:Generated_Source\PSoC4/Jetty_I2C.c **** 
 122:Generated_Source\PSoC4/Jetty_I2C.c ****             /* Configure I2C interface */
 123:Generated_Source\PSoC4/Jetty_I2C.c ****             Jetty_CTRL_REG     = Jetty_GET_CTRL_BYTE_MODE  (config->enableByteMode) |
 124:Generated_Source\PSoC4/Jetty_I2C.c ****                                             Jetty_GET_CTRL_ADDR_ACCEPT(config->acceptAddr)     |
 125:Generated_Source\PSoC4/Jetty_I2C.c ****                                             Jetty_GET_CTRL_EC_AM_MODE (locEnableWake);
 126:Generated_Source\PSoC4/Jetty_I2C.c **** 
 127:Generated_Source\PSoC4/Jetty_I2C.c ****             Jetty_I2C_CTRL_REG = Jetty_GET_I2C_CTRL_HIGH_PHASE_OVS(config->oversampleHigh) |
 128:Generated_Source\PSoC4/Jetty_I2C.c ****                     Jetty_GET_I2C_CTRL_LOW_PHASE_OVS (config->oversampleLow)                       
 129:Generated_Source\PSoC4/Jetty_I2C.c ****                     Jetty_GET_I2C_CTRL_S_GENERAL_IGNORE((uint32)(0u == config->acceptGeneralAddr)) 
 130:Generated_Source\PSoC4/Jetty_I2C.c ****                     Jetty_GET_I2C_CTRL_SL_MSTR_MODE  (config->mode);
 131:Generated_Source\PSoC4/Jetty_I2C.c **** 
 132:Generated_Source\PSoC4/Jetty_I2C.c ****             /* Configure RX direction */
 133:Generated_Source\PSoC4/Jetty_I2C.c ****             Jetty_RX_CTRL_REG      = Jetty_GET_RX_CTRL_MEDIAN(medianFilter) |
 134:Generated_Source\PSoC4/Jetty_I2C.c ****                                                 Jetty_I2C_RX_CTRL;
 135:Generated_Source\PSoC4/Jetty_I2C.c ****             Jetty_RX_FIFO_CTRL_REG = Jetty_CLEAR_REG;
 136:Generated_Source\PSoC4/Jetty_I2C.c **** 
 137:Generated_Source\PSoC4/Jetty_I2C.c ****             /* Set default address and mask */
 138:Generated_Source\PSoC4/Jetty_I2C.c ****             Jetty_RX_MATCH_REG    = ((Jetty_I2C_SLAVE) ?
 139:Generated_Source\PSoC4/Jetty_I2C.c ****                                                 (Jetty_GET_I2C_8BIT_ADDRESS(config->slaveAddr) |
 140:Generated_Source\PSoC4/Jetty_I2C.c ****                                                  Jetty_GET_RX_MATCH_MASK(config->slaveAddrMask)) :
 141:Generated_Source\PSoC4/Jetty_I2C.c ****                                                 (Jetty_CLEAR_REG));
 142:Generated_Source\PSoC4/Jetty_I2C.c **** 
 143:Generated_Source\PSoC4/Jetty_I2C.c **** 
 144:Generated_Source\PSoC4/Jetty_I2C.c ****             /* Configure TX direction */
ARM GAS  C:\Users\tsien\AppData\Local\Temp\ccCO1WSq.s 			page 4


 145:Generated_Source\PSoC4/Jetty_I2C.c ****             Jetty_TX_CTRL_REG      = Jetty_I2C_TX_CTRL;
 146:Generated_Source\PSoC4/Jetty_I2C.c ****             Jetty_TX_FIFO_CTRL_REG = Jetty_CLEAR_REG;
 147:Generated_Source\PSoC4/Jetty_I2C.c **** 
 148:Generated_Source\PSoC4/Jetty_I2C.c ****             /* Configure interrupt with I2C handler but do not enable it */
 149:Generated_Source\PSoC4/Jetty_I2C.c ****             CyIntDisable    (Jetty_ISR_NUMBER);
 150:Generated_Source\PSoC4/Jetty_I2C.c ****             CyIntSetPriority(Jetty_ISR_NUMBER, Jetty_ISR_PRIORITY);
 151:Generated_Source\PSoC4/Jetty_I2C.c ****             (void) CyIntSetVector(Jetty_ISR_NUMBER, &Jetty_I2C_ISR);
 152:Generated_Source\PSoC4/Jetty_I2C.c **** 
 153:Generated_Source\PSoC4/Jetty_I2C.c ****             /* Configure interrupt sources */
 154:Generated_Source\PSoC4/Jetty_I2C.c ****         #if(!Jetty_CY_SCBIP_V1)
 155:Generated_Source\PSoC4/Jetty_I2C.c ****             Jetty_INTR_SPI_EC_MASK_REG = Jetty_NO_INTR_SOURCES;
 156:Generated_Source\PSoC4/Jetty_I2C.c ****         #endif /* (!Jetty_CY_SCBIP_V1) */
 157:Generated_Source\PSoC4/Jetty_I2C.c **** 
 158:Generated_Source\PSoC4/Jetty_I2C.c ****             Jetty_INTR_I2C_EC_MASK_REG = Jetty_NO_INTR_SOURCES;
 159:Generated_Source\PSoC4/Jetty_I2C.c ****             Jetty_INTR_RX_MASK_REG     = Jetty_NO_INTR_SOURCES;
 160:Generated_Source\PSoC4/Jetty_I2C.c ****             Jetty_INTR_TX_MASK_REG     = Jetty_NO_INTR_SOURCES;
 161:Generated_Source\PSoC4/Jetty_I2C.c **** 
 162:Generated_Source\PSoC4/Jetty_I2C.c ****             Jetty_INTR_SLAVE_MASK_REG  = ((Jetty_I2C_SLAVE) ?
 163:Generated_Source\PSoC4/Jetty_I2C.c ****                             (Jetty_GET_INTR_SLAVE_I2C_GENERAL(config->acceptGeneralAddr) |
 164:Generated_Source\PSoC4/Jetty_I2C.c ****                              Jetty_I2C_INTR_SLAVE_MASK) : (Jetty_CLEAR_REG));
 165:Generated_Source\PSoC4/Jetty_I2C.c **** 
 166:Generated_Source\PSoC4/Jetty_I2C.c ****             Jetty_INTR_MASTER_MASK_REG = Jetty_NO_INTR_SOURCES;
 167:Generated_Source\PSoC4/Jetty_I2C.c **** 
 168:Generated_Source\PSoC4/Jetty_I2C.c ****             /* Configure global variables */
 169:Generated_Source\PSoC4/Jetty_I2C.c ****             Jetty_state = Jetty_I2C_FSM_IDLE;
 170:Generated_Source\PSoC4/Jetty_I2C.c **** 
 171:Generated_Source\PSoC4/Jetty_I2C.c ****             /* Internal slave variables */
 172:Generated_Source\PSoC4/Jetty_I2C.c ****             Jetty_slStatus        = 0u;
 173:Generated_Source\PSoC4/Jetty_I2C.c ****             Jetty_slRdBufIndex    = 0u;
 174:Generated_Source\PSoC4/Jetty_I2C.c ****             Jetty_slWrBufIndex    = 0u;
 175:Generated_Source\PSoC4/Jetty_I2C.c ****             Jetty_slOverFlowCount = 0u;
 176:Generated_Source\PSoC4/Jetty_I2C.c **** 
 177:Generated_Source\PSoC4/Jetty_I2C.c ****             /* Internal master variables */
 178:Generated_Source\PSoC4/Jetty_I2C.c ****             Jetty_mstrStatus     = 0u;
 179:Generated_Source\PSoC4/Jetty_I2C.c ****             Jetty_mstrRdBufIndex = 0u;
 180:Generated_Source\PSoC4/Jetty_I2C.c ****             Jetty_mstrWrBufIndex = 0u;
 181:Generated_Source\PSoC4/Jetty_I2C.c ****         }
 182:Generated_Source\PSoC4/Jetty_I2C.c ****     }
 183:Generated_Source\PSoC4/Jetty_I2C.c **** 
 184:Generated_Source\PSoC4/Jetty_I2C.c **** #else
 185:Generated_Source\PSoC4/Jetty_I2C.c **** 
 186:Generated_Source\PSoC4/Jetty_I2C.c ****     /*******************************************************************************
 187:Generated_Source\PSoC4/Jetty_I2C.c ****     * Function Name: Jetty_I2CInit
 188:Generated_Source\PSoC4/Jetty_I2C.c ****     ****************************************************************************//**
 189:Generated_Source\PSoC4/Jetty_I2C.c ****     *
 190:Generated_Source\PSoC4/Jetty_I2C.c ****     *  Configures the SCB for the I2C operation.
 191:Generated_Source\PSoC4/Jetty_I2C.c ****     *
 192:Generated_Source\PSoC4/Jetty_I2C.c ****     *******************************************************************************/
 193:Generated_Source\PSoC4/Jetty_I2C.c ****     void Jetty_I2CInit(void)
 194:Generated_Source\PSoC4/Jetty_I2C.c ****     {
  28              		.loc 1 194 0
  29              		.cfi_startproc
  30              		@ args = 0, pretend = 0, frame = 0
  31              		@ frame_needed = 0, uses_anonymous_args = 0
  32 0000 10B5     		push	{r4, lr}
  33              		.cfi_def_cfa_offset 8
  34              		.cfi_offset 4, -8
ARM GAS  C:\Users\tsien\AppData\Local\Temp\ccCO1WSq.s 			page 5


  35              		.cfi_offset 14, -4
 195:Generated_Source\PSoC4/Jetty_I2C.c ****     #if(Jetty_CY_SCBIP_V0)
 196:Generated_Source\PSoC4/Jetty_I2C.c ****         /* Adjust SDA filter settings. Ticket ID#150521 */
 197:Generated_Source\PSoC4/Jetty_I2C.c ****         Jetty_SET_I2C_CFG_SDA_FILT_TRIM(Jetty_EC_AM_I2C_CFG_SDA_FILT_TRIM);
  36              		.loc 1 197 0
  37 0002 1B4A     		ldr	r2, .L2
  38 0004 1168     		ldr	r1, [r2]
  39 0006 0C23     		movs	r3, #12
  40 0008 0B43     		orrs	r3, r1
  41 000a 1360     		str	r3, [r2]
 198:Generated_Source\PSoC4/Jetty_I2C.c ****     #endif /* (Jetty_CY_SCBIP_V0) */
 199:Generated_Source\PSoC4/Jetty_I2C.c **** 
 200:Generated_Source\PSoC4/Jetty_I2C.c ****         /* Adjust AF and DF filter settings. Ticket ID#176179 */
 201:Generated_Source\PSoC4/Jetty_I2C.c ****         Jetty_I2C_CFG_ANALOG_FITER_ENABLE_ADJ;
 202:Generated_Source\PSoC4/Jetty_I2C.c **** 
 203:Generated_Source\PSoC4/Jetty_I2C.c ****         /* Configure I2C interface */
 204:Generated_Source\PSoC4/Jetty_I2C.c ****         Jetty_CTRL_REG     = Jetty_I2C_DEFAULT_CTRL;
  42              		.loc 1 204 0
  43 000c 0024     		movs	r4, #0
  44 000e 194B     		ldr	r3, .L2+4
  45 0010 1C60     		str	r4, [r3]
 205:Generated_Source\PSoC4/Jetty_I2C.c ****         Jetty_I2C_CTRL_REG = Jetty_I2C_DEFAULT_I2C_CTRL;
  46              		.loc 1 205 0
  47 0012 194A     		ldr	r2, .L2+8
  48 0014 194B     		ldr	r3, .L2+12
  49 0016 1A60     		str	r2, [r3]
 206:Generated_Source\PSoC4/Jetty_I2C.c **** 
 207:Generated_Source\PSoC4/Jetty_I2C.c ****         /* Configure RX direction */
 208:Generated_Source\PSoC4/Jetty_I2C.c ****         Jetty_RX_CTRL_REG      = Jetty_I2C_DEFAULT_RX_CTRL;
  50              		.loc 1 208 0
  51 0018 194B     		ldr	r3, .L2+16
  52 001a 1A4A     		ldr	r2, .L2+20
  53 001c 1360     		str	r3, [r2]
 209:Generated_Source\PSoC4/Jetty_I2C.c ****         Jetty_RX_FIFO_CTRL_REG = Jetty_I2C_DEFAULT_RX_FIFO_CTRL;
  54              		.loc 1 209 0
  55 001e 1A4A     		ldr	r2, .L2+24
  56 0020 1460     		str	r4, [r2]
 210:Generated_Source\PSoC4/Jetty_I2C.c **** 
 211:Generated_Source\PSoC4/Jetty_I2C.c ****         /* Set default address and mask */
 212:Generated_Source\PSoC4/Jetty_I2C.c ****         Jetty_RX_MATCH_REG     = Jetty_I2C_DEFAULT_RX_MATCH;
  57              		.loc 1 212 0
  58 0022 1A4A     		ldr	r2, .L2+28
  59 0024 1460     		str	r4, [r2]
 213:Generated_Source\PSoC4/Jetty_I2C.c **** 
 214:Generated_Source\PSoC4/Jetty_I2C.c ****         /* Configure TX direction */
 215:Generated_Source\PSoC4/Jetty_I2C.c ****         Jetty_TX_CTRL_REG      = Jetty_I2C_DEFAULT_TX_CTRL;
  60              		.loc 1 215 0
  61 0026 1A4A     		ldr	r2, .L2+32
  62 0028 1360     		str	r3, [r2]
 216:Generated_Source\PSoC4/Jetty_I2C.c ****         Jetty_TX_FIFO_CTRL_REG = Jetty_I2C_DEFAULT_TX_FIFO_CTRL;
  63              		.loc 1 216 0
  64 002a 1A4B     		ldr	r3, .L2+36
  65 002c 1C60     		str	r4, [r3]
 217:Generated_Source\PSoC4/Jetty_I2C.c **** 
 218:Generated_Source\PSoC4/Jetty_I2C.c ****         /* Configure interrupt with I2C handler but do not enable it */
 219:Generated_Source\PSoC4/Jetty_I2C.c ****         CyIntDisable    (Jetty_ISR_NUMBER);
  66              		.loc 1 219 0
ARM GAS  C:\Users\tsien\AppData\Local\Temp\ccCO1WSq.s 			page 6


  67 002e 0A20     		movs	r0, #10
  68 0030 FFF7FEFF 		bl	CyIntDisable
  69              	.LVL0:
 220:Generated_Source\PSoC4/Jetty_I2C.c ****         CyIntSetPriority(Jetty_ISR_NUMBER, Jetty_ISR_PRIORITY);
  70              		.loc 1 220 0
  71 0034 0321     		movs	r1, #3
  72 0036 0A20     		movs	r0, #10
  73 0038 FFF7FEFF 		bl	CyIntSetPriority
  74              	.LVL1:
 221:Generated_Source\PSoC4/Jetty_I2C.c ****     #if(!Jetty_I2C_EXTERN_INTR_HANDLER)
 222:Generated_Source\PSoC4/Jetty_I2C.c ****         (void) CyIntSetVector(Jetty_ISR_NUMBER, &Jetty_I2C_ISR);
  75              		.loc 1 222 0
  76 003c 1649     		ldr	r1, .L2+40
  77 003e 0A20     		movs	r0, #10
  78 0040 FFF7FEFF 		bl	CyIntSetVector
  79              	.LVL2:
 223:Generated_Source\PSoC4/Jetty_I2C.c ****     #endif /* (Jetty_I2C_EXTERN_INTR_HANDLER) */
 224:Generated_Source\PSoC4/Jetty_I2C.c **** 
 225:Generated_Source\PSoC4/Jetty_I2C.c ****         /* Configure interrupt sources */
 226:Generated_Source\PSoC4/Jetty_I2C.c ****     #if(!Jetty_CY_SCBIP_V1)
 227:Generated_Source\PSoC4/Jetty_I2C.c ****         Jetty_INTR_SPI_EC_MASK_REG = Jetty_I2C_DEFAULT_INTR_SPI_EC_MASK;
  80              		.loc 1 227 0
  81 0044 154B     		ldr	r3, .L2+44
  82 0046 1C60     		str	r4, [r3]
 228:Generated_Source\PSoC4/Jetty_I2C.c ****     #endif /* (!Jetty_CY_SCBIP_V1) */
 229:Generated_Source\PSoC4/Jetty_I2C.c **** 
 230:Generated_Source\PSoC4/Jetty_I2C.c ****         Jetty_INTR_I2C_EC_MASK_REG = Jetty_I2C_DEFAULT_INTR_I2C_EC_MASK;
  83              		.loc 1 230 0
  84 0048 154B     		ldr	r3, .L2+48
  85 004a 1C60     		str	r4, [r3]
 231:Generated_Source\PSoC4/Jetty_I2C.c ****         Jetty_INTR_SLAVE_MASK_REG  = Jetty_I2C_DEFAULT_INTR_SLAVE_MASK;
  86              		.loc 1 231 0
  87 004c 154B     		ldr	r3, .L2+52
  88 004e 1C60     		str	r4, [r3]
 232:Generated_Source\PSoC4/Jetty_I2C.c ****         Jetty_INTR_MASTER_MASK_REG = Jetty_I2C_DEFAULT_INTR_MASTER_MASK;
  89              		.loc 1 232 0
  90 0050 154B     		ldr	r3, .L2+56
  91 0052 1C60     		str	r4, [r3]
 233:Generated_Source\PSoC4/Jetty_I2C.c ****         Jetty_INTR_RX_MASK_REG     = Jetty_I2C_DEFAULT_INTR_RX_MASK;
  92              		.loc 1 233 0
  93 0054 154B     		ldr	r3, .L2+60
  94 0056 1C60     		str	r4, [r3]
 234:Generated_Source\PSoC4/Jetty_I2C.c ****         Jetty_INTR_TX_MASK_REG     = Jetty_I2C_DEFAULT_INTR_TX_MASK;
  95              		.loc 1 234 0
  96 0058 154B     		ldr	r3, .L2+64
  97 005a 1C60     		str	r4, [r3]
 235:Generated_Source\PSoC4/Jetty_I2C.c **** 
 236:Generated_Source\PSoC4/Jetty_I2C.c ****         /* Configure global variables */
 237:Generated_Source\PSoC4/Jetty_I2C.c ****         Jetty_state = Jetty_I2C_FSM_IDLE;
  98              		.loc 1 237 0
  99 005c 1022     		movs	r2, #16
 100 005e 154B     		ldr	r3, .L2+68
 101 0060 1A70     		strb	r2, [r3]
 238:Generated_Source\PSoC4/Jetty_I2C.c **** 
 239:Generated_Source\PSoC4/Jetty_I2C.c ****     #if(Jetty_I2C_SLAVE)
 240:Generated_Source\PSoC4/Jetty_I2C.c ****         /* Internal slave variable */
 241:Generated_Source\PSoC4/Jetty_I2C.c ****         Jetty_slStatus        = 0u;
ARM GAS  C:\Users\tsien\AppData\Local\Temp\ccCO1WSq.s 			page 7


 242:Generated_Source\PSoC4/Jetty_I2C.c ****         Jetty_slRdBufIndex    = 0u;
 243:Generated_Source\PSoC4/Jetty_I2C.c ****         Jetty_slWrBufIndex    = 0u;
 244:Generated_Source\PSoC4/Jetty_I2C.c ****         Jetty_slOverFlowCount = 0u;
 245:Generated_Source\PSoC4/Jetty_I2C.c ****     #endif /* (Jetty_I2C_SLAVE) */
 246:Generated_Source\PSoC4/Jetty_I2C.c **** 
 247:Generated_Source\PSoC4/Jetty_I2C.c ****     #if(Jetty_I2C_MASTER)
 248:Generated_Source\PSoC4/Jetty_I2C.c ****     /* Internal master variable */
 249:Generated_Source\PSoC4/Jetty_I2C.c ****         Jetty_mstrStatus     = 0u;
 102              		.loc 1 249 0
 103 0062 154B     		ldr	r3, .L2+72
 104 0064 1C80     		strh	r4, [r3]
 250:Generated_Source\PSoC4/Jetty_I2C.c ****         Jetty_mstrRdBufIndex = 0u;
 105              		.loc 1 250 0
 106 0066 154B     		ldr	r3, .L2+76
 107 0068 1C60     		str	r4, [r3]
 251:Generated_Source\PSoC4/Jetty_I2C.c ****         Jetty_mstrWrBufIndex = 0u;
 108              		.loc 1 251 0
 109 006a 154B     		ldr	r3, .L2+80
 110 006c 1C60     		str	r4, [r3]
 252:Generated_Source\PSoC4/Jetty_I2C.c ****     #endif /* (Jetty_I2C_MASTER) */
 253:Generated_Source\PSoC4/Jetty_I2C.c ****     }
 111              		.loc 1 253 0
 112              		@ sp needed
 113 006e 10BD     		pop	{r4, pc}
 114              	.L3:
 115              		.align	2
 116              	.L2:
 117 0070 70000640 		.word	1074135152
 118 0074 00000640 		.word	1074135040
 119 0078 77080080 		.word	-2147481481
 120 007c 60000640 		.word	1074135136
 121 0080 07010080 		.word	-2147483385
 122 0084 00030640 		.word	1074135808
 123 0088 04030640 		.word	1074135812
 124 008c 10030640 		.word	1074135824
 125 0090 00020640 		.word	1074135552
 126 0094 04020640 		.word	1074135556
 127 0098 00000000 		.word	Jetty_I2C_ISR
 128 009c C80E0640 		.word	1074138824
 129 00a0 880E0640 		.word	1074138760
 130 00a4 480F0640 		.word	1074138952
 131 00a8 080F0640 		.word	1074138888
 132 00ac C80F0640 		.word	1074139080
 133 00b0 880F0640 		.word	1074139016
 134 00b4 00000000 		.word	Jetty_state
 135 00b8 00000000 		.word	Jetty_mstrStatus
 136 00bc 00000000 		.word	Jetty_mstrRdBufIndex
 137 00c0 00000000 		.word	Jetty_mstrWrBufIndex
 138              		.cfi_endproc
 139              	.LFE0:
 140              		.size	Jetty_I2CInit, .-Jetty_I2CInit
 141              		.section	.text.Jetty_I2CStop,"ax",%progbits
 142              		.align	2
 143              		.global	Jetty_I2CStop
 144              		.code	16
 145              		.thumb_func
 146              		.type	Jetty_I2CStop, %function
ARM GAS  C:\Users\tsien\AppData\Local\Temp\ccCO1WSq.s 			page 8


 147              	Jetty_I2CStop:
 148              	.LFB1:
 254:Generated_Source\PSoC4/Jetty_I2C.c **** #endif /* (Jetty_SCB_MODE_UNCONFIG_CONST_CFG) */
 255:Generated_Source\PSoC4/Jetty_I2C.c **** 
 256:Generated_Source\PSoC4/Jetty_I2C.c **** 
 257:Generated_Source\PSoC4/Jetty_I2C.c **** /*******************************************************************************
 258:Generated_Source\PSoC4/Jetty_I2C.c **** * Function Name: Jetty_I2CStop
 259:Generated_Source\PSoC4/Jetty_I2C.c **** ****************************************************************************//**
 260:Generated_Source\PSoC4/Jetty_I2C.c **** *
 261:Generated_Source\PSoC4/Jetty_I2C.c **** *  Resets the I2C FSM into the default state.
 262:Generated_Source\PSoC4/Jetty_I2C.c **** *
 263:Generated_Source\PSoC4/Jetty_I2C.c **** *******************************************************************************/
 264:Generated_Source\PSoC4/Jetty_I2C.c **** void Jetty_I2CStop(void)
 265:Generated_Source\PSoC4/Jetty_I2C.c **** {
 149              		.loc 1 265 0
 150              		.cfi_startproc
 151              		@ args = 0, pretend = 0, frame = 0
 152              		@ frame_needed = 0, uses_anonymous_args = 0
 153              		@ link register save eliminated.
 266:Generated_Source\PSoC4/Jetty_I2C.c ****     /* Clear command registers because they keep assigned value after IP block was disabled */
 267:Generated_Source\PSoC4/Jetty_I2C.c ****     Jetty_I2C_MASTER_CMD_REG = 0u;
 154              		.loc 1 267 0
 155 0000 0023     		movs	r3, #0
 156 0002 044A     		ldr	r2, .L5
 157 0004 1360     		str	r3, [r2]
 268:Generated_Source\PSoC4/Jetty_I2C.c ****     Jetty_I2C_SLAVE_CMD_REG  = 0u;
 158              		.loc 1 268 0
 159 0006 044A     		ldr	r2, .L5+4
 160 0008 1360     		str	r3, [r2]
 269:Generated_Source\PSoC4/Jetty_I2C.c ****     
 270:Generated_Source\PSoC4/Jetty_I2C.c ****     Jetty_state = Jetty_I2C_FSM_IDLE;
 161              		.loc 1 270 0
 162 000a 1022     		movs	r2, #16
 163 000c 034B     		ldr	r3, .L5+8
 164 000e 1A70     		strb	r2, [r3]
 271:Generated_Source\PSoC4/Jetty_I2C.c **** }
 165              		.loc 1 271 0
 166              		@ sp needed
 167 0010 7047     		bx	lr
 168              	.L6:
 169 0012 C046     		.align	2
 170              	.L5:
 171 0014 68000640 		.word	1074135144
 172 0018 6C000640 		.word	1074135148
 173 001c 00000000 		.word	Jetty_state
 174              		.cfi_endproc
 175              	.LFE1:
 176              		.size	Jetty_I2CStop, .-Jetty_I2CStop
 177              		.section	.text.Jetty_I2CFwBlockReset,"ax",%progbits
 178              		.align	2
 179              		.global	Jetty_I2CFwBlockReset
 180              		.code	16
 181              		.thumb_func
 182              		.type	Jetty_I2CFwBlockReset, %function
 183              	Jetty_I2CFwBlockReset:
 184              	.LFB2:
 272:Generated_Source\PSoC4/Jetty_I2C.c **** 
ARM GAS  C:\Users\tsien\AppData\Local\Temp\ccCO1WSq.s 			page 9


 273:Generated_Source\PSoC4/Jetty_I2C.c **** 
 274:Generated_Source\PSoC4/Jetty_I2C.c **** /*******************************************************************************
 275:Generated_Source\PSoC4/Jetty_I2C.c **** * Function Name: Jetty_I2CFwBlockReset
 276:Generated_Source\PSoC4/Jetty_I2C.c **** ****************************************************************************//**
 277:Generated_Source\PSoC4/Jetty_I2C.c **** *
 278:Generated_Source\PSoC4/Jetty_I2C.c **** * Resets the scb IP block and I2C into the known state.
 279:Generated_Source\PSoC4/Jetty_I2C.c **** *
 280:Generated_Source\PSoC4/Jetty_I2C.c **** *******************************************************************************/
 281:Generated_Source\PSoC4/Jetty_I2C.c **** void Jetty_I2CFwBlockReset(void)
 282:Generated_Source\PSoC4/Jetty_I2C.c **** {
 185              		.loc 1 282 0
 186              		.cfi_startproc
 187              		@ args = 0, pretend = 0, frame = 0
 188              		@ frame_needed = 0, uses_anonymous_args = 0
 189 0000 10B5     		push	{r4, lr}
 190              		.cfi_def_cfa_offset 8
 191              		.cfi_offset 4, -8
 192              		.cfi_offset 14, -4
 283:Generated_Source\PSoC4/Jetty_I2C.c ****     /* Disable scb IP: stop respond to I2C traffic */
 284:Generated_Source\PSoC4/Jetty_I2C.c ****     Jetty_CTRL_REG &= (uint32) ~Jetty_CTRL_ENABLED;
 193              		.loc 1 284 0
 194 0002 144A     		ldr	r2, .L8
 195 0004 1368     		ldr	r3, [r2]
 196 0006 5B00     		lsls	r3, r3, #1
 197 0008 5B08     		lsrs	r3, r3, #1
 198 000a 1360     		str	r3, [r2]
 285:Generated_Source\PSoC4/Jetty_I2C.c **** 
 286:Generated_Source\PSoC4/Jetty_I2C.c ****     /* Clear command registers they are not cleared after scb IP is disabled */
 287:Generated_Source\PSoC4/Jetty_I2C.c ****     Jetty_I2C_MASTER_CMD_REG = 0u;
 199              		.loc 1 287 0
 200 000c 0023     		movs	r3, #0
 201 000e 1249     		ldr	r1, .L8+4
 202 0010 0B60     		str	r3, [r1]
 288:Generated_Source\PSoC4/Jetty_I2C.c ****     Jetty_I2C_SLAVE_CMD_REG  = 0u;
 203              		.loc 1 288 0
 204 0012 1249     		ldr	r1, .L8+8
 205 0014 0B60     		str	r3, [r1]
 289:Generated_Source\PSoC4/Jetty_I2C.c **** 
 290:Generated_Source\PSoC4/Jetty_I2C.c ****     Jetty_DISABLE_AUTO_DATA;
 206              		.loc 1 290 0
 207 0016 1248     		ldr	r0, .L8+12
 208 0018 0468     		ldr	r4, [r0]
 209 001a 1249     		ldr	r1, .L8+16
 210 001c 2140     		ands	r1, r4
 211 001e 0160     		str	r1, [r0]
 291:Generated_Source\PSoC4/Jetty_I2C.c **** 
 292:Generated_Source\PSoC4/Jetty_I2C.c ****     Jetty_SetTxInterruptMode(Jetty_NO_INTR_SOURCES);
 212              		.loc 1 292 0
 213 0020 1149     		ldr	r1, .L8+20
 214 0022 0B60     		str	r3, [r1]
 293:Generated_Source\PSoC4/Jetty_I2C.c ****     Jetty_SetRxInterruptMode(Jetty_NO_INTR_SOURCES);
 215              		.loc 1 293 0
 216 0024 1149     		ldr	r1, .L8+24
 217 0026 0B60     		str	r3, [r1]
 294:Generated_Source\PSoC4/Jetty_I2C.c ****     
 295:Generated_Source\PSoC4/Jetty_I2C.c **** #if(Jetty_CY_SCBIP_V0)
 296:Generated_Source\PSoC4/Jetty_I2C.c ****     /* Clear interrupt sources as they are not cleared after scb IP is disabled */
ARM GAS  C:\Users\tsien\AppData\Local\Temp\ccCO1WSq.s 			page 10


 297:Generated_Source\PSoC4/Jetty_I2C.c ****     Jetty_ClearTxInterruptSource    (Jetty_INTR_TX_ALL);
 218              		.loc 1 297 0
 219 0028 1149     		ldr	r1, .L8+28
 220 002a 124B     		ldr	r3, .L8+32
 221 002c 1960     		str	r1, [r3]
 298:Generated_Source\PSoC4/Jetty_I2C.c ****     Jetty_ClearRxInterruptSource    (Jetty_INTR_RX_ALL);
 222              		.loc 1 298 0
 223 002e 1249     		ldr	r1, .L8+36
 224 0030 124B     		ldr	r3, .L8+40
 225 0032 1960     		str	r1, [r3]
 299:Generated_Source\PSoC4/Jetty_I2C.c ****     Jetty_ClearSlaveInterruptSource (Jetty_INTR_SLAVE_ALL);
 226              		.loc 1 299 0
 227 0034 1249     		ldr	r1, .L8+44
 228 0036 134B     		ldr	r3, .L8+48
 229 0038 1960     		str	r1, [r3]
 300:Generated_Source\PSoC4/Jetty_I2C.c ****     Jetty_ClearMasterInterruptSource(Jetty_INTR_MASTER_ALL);
 230              		.loc 1 300 0
 231 003a 1349     		ldr	r1, .L8+52
 232 003c 134B     		ldr	r3, .L8+56
 233 003e 1960     		str	r1, [r3]
 301:Generated_Source\PSoC4/Jetty_I2C.c **** #endif /* (Jetty_CY_SCBIP_V0) */
 302:Generated_Source\PSoC4/Jetty_I2C.c **** 
 303:Generated_Source\PSoC4/Jetty_I2C.c ****     Jetty_state = Jetty_I2C_FSM_IDLE;
 234              		.loc 1 303 0
 235 0040 1021     		movs	r1, #16
 236 0042 134B     		ldr	r3, .L8+60
 237 0044 1970     		strb	r1, [r3]
 304:Generated_Source\PSoC4/Jetty_I2C.c **** 
 305:Generated_Source\PSoC4/Jetty_I2C.c ****     /* Enable scb IP: start respond to I2C traffic */
 306:Generated_Source\PSoC4/Jetty_I2C.c ****     Jetty_CTRL_REG |= (uint32) Jetty_CTRL_ENABLED;
 238              		.loc 1 306 0
 239 0046 1368     		ldr	r3, [r2]
 240 0048 8021     		movs	r1, #128
 241 004a 0906     		lsls	r1, r1, #24
 242 004c 0B43     		orrs	r3, r1
 243 004e 1360     		str	r3, [r2]
 307:Generated_Source\PSoC4/Jetty_I2C.c **** }
 244              		.loc 1 307 0
 245              		@ sp needed
 246 0050 10BD     		pop	{r4, pc}
 247              	.L9:
 248 0052 C046     		.align	2
 249              	.L8:
 250 0054 00000640 		.word	1074135040
 251 0058 68000640 		.word	1074135144
 252 005c 6C000640 		.word	1074135148
 253 0060 60000640 		.word	1074135136
 254 0064 FF5CFFFF 		.word	-41729
 255 0068 880F0640 		.word	1074139016
 256 006c C80F0640 		.word	1074139080
 257 0070 F3070000 		.word	2035
 258 0074 800F0640 		.word	1074139008
 259 0078 ED0F0000 		.word	4077
 260 007c C00F0640 		.word	1074139072
 261 0080 FF0F0000 		.word	4095
 262 0084 400F0640 		.word	1074138944
 263 0088 17030000 		.word	791
ARM GAS  C:\Users\tsien\AppData\Local\Temp\ccCO1WSq.s 			page 11


 264 008c 000F0640 		.word	1074138880
 265 0090 00000000 		.word	Jetty_state
 266              		.cfi_endproc
 267              	.LFE2:
 268              		.size	Jetty_I2CFwBlockReset, .-Jetty_I2CFwBlockReset
 269              		.comm	Jetty_state,1,1
 270              		.text
 271              	.Letext0:
 272              		.file 2 "Generated_Source\\PSoC4/cytypes.h"
 273              		.file 3 "Generated_Source\\PSoC4\\Jetty_I2C_PVT.h"
 274              		.file 4 "Generated_Source\\PSoC4/CyLib.h"