ARM GAS  C:\Users\tsien\AppData\Local\Temp\ccVzEi8h.s 			page 1


   1              		.syntax unified
   2              		.cpu cortex-m0
   3              		.fpu softvfp
   4              		.eabi_attribute 20, 1
   5              		.eabi_attribute 21, 1
   6              		.eabi_attribute 23, 3
   7              		.eabi_attribute 24, 1
   8              		.eabi_attribute 25, 1
   9              		.eabi_attribute 26, 1
  10              		.eabi_attribute 30, 1
  11              		.eabi_attribute 34, 0
  12              		.eabi_attribute 18, 4
  13              		.thumb
  14              		.syntax unified
  15              		.file	"Jetty_I2C_MASTER.c"
  16              		.text
  17              	.Ltext0:
  18              		.cfi_sections	.debug_frame
  19              		.section	.text.Jetty_I2CMasterWaitOneUnit,"ax",%progbits
  20              		.align	2
  21              		.code	16
  22              		.thumb_func
  23              		.type	Jetty_I2CMasterWaitOneUnit, %function
  24              	Jetty_I2CMasterWaitOneUnit:
  25              	.LFB15:
  26              		.file 1 "Generated_Source\\PSoC4\\Jetty_I2C_MASTER.c"
   1:Generated_Source\PSoC4/Jetty_I2C_MASTER.c **** /***************************************************************************//**
   2:Generated_Source\PSoC4/Jetty_I2C_MASTER.c **** * \file Jetty_I2C_MASTER.c
   3:Generated_Source\PSoC4/Jetty_I2C_MASTER.c **** * \version 4.0
   4:Generated_Source\PSoC4/Jetty_I2C_MASTER.c **** *
   5:Generated_Source\PSoC4/Jetty_I2C_MASTER.c **** * \brief
   6:Generated_Source\PSoC4/Jetty_I2C_MASTER.c **** *  This file provides the source code to the API for the SCB Component in
   7:Generated_Source\PSoC4/Jetty_I2C_MASTER.c **** *  I2C Master mode.
   8:Generated_Source\PSoC4/Jetty_I2C_MASTER.c **** *
   9:Generated_Source\PSoC4/Jetty_I2C_MASTER.c **** * Note:
  10:Generated_Source\PSoC4/Jetty_I2C_MASTER.c **** *
  11:Generated_Source\PSoC4/Jetty_I2C_MASTER.c **** *******************************************************************************
  12:Generated_Source\PSoC4/Jetty_I2C_MASTER.c **** * \copyright
  13:Generated_Source\PSoC4/Jetty_I2C_MASTER.c **** * Copyright 2013-2017, Cypress Semiconductor Corporation.  All rights reserved.
  14:Generated_Source\PSoC4/Jetty_I2C_MASTER.c **** * You may use this file only in accordance with the license, terms, conditions,
  15:Generated_Source\PSoC4/Jetty_I2C_MASTER.c **** * disclaimers, and limitations in the end user license agreement accompanying
  16:Generated_Source\PSoC4/Jetty_I2C_MASTER.c **** * the software package with which this file was provided.
  17:Generated_Source\PSoC4/Jetty_I2C_MASTER.c **** *******************************************************************************/
  18:Generated_Source\PSoC4/Jetty_I2C_MASTER.c **** 
  19:Generated_Source\PSoC4/Jetty_I2C_MASTER.c **** #include "Jetty_PVT.h"
  20:Generated_Source\PSoC4/Jetty_I2C_MASTER.c **** #include "Jetty_I2C_PVT.h"
  21:Generated_Source\PSoC4/Jetty_I2C_MASTER.c **** 
  22:Generated_Source\PSoC4/Jetty_I2C_MASTER.c **** #if(Jetty_I2C_MASTER_CONST)
  23:Generated_Source\PSoC4/Jetty_I2C_MASTER.c **** 
  24:Generated_Source\PSoC4/Jetty_I2C_MASTER.c **** /***************************************
  25:Generated_Source\PSoC4/Jetty_I2C_MASTER.c **** *      I2C Master Private Vars
  26:Generated_Source\PSoC4/Jetty_I2C_MASTER.c **** ***************************************/
  27:Generated_Source\PSoC4/Jetty_I2C_MASTER.c **** 
  28:Generated_Source\PSoC4/Jetty_I2C_MASTER.c **** /* Master variables */
  29:Generated_Source\PSoC4/Jetty_I2C_MASTER.c **** volatile uint16 Jetty_mstrStatus;      /* Master Status byte  */
  30:Generated_Source\PSoC4/Jetty_I2C_MASTER.c **** volatile uint8  Jetty_mstrControl;     /* Master Control byte */
  31:Generated_Source\PSoC4/Jetty_I2C_MASTER.c **** 
ARM GAS  C:\Users\tsien\AppData\Local\Temp\ccVzEi8h.s 			page 2


  32:Generated_Source\PSoC4/Jetty_I2C_MASTER.c **** /* Receive buffer variables */
  33:Generated_Source\PSoC4/Jetty_I2C_MASTER.c **** volatile uint8 * Jetty_mstrRdBufPtr;   /* Pointer to Master Read buffer */
  34:Generated_Source\PSoC4/Jetty_I2C_MASTER.c **** volatile uint32  Jetty_mstrRdBufSize;  /* Master Read buffer size       */
  35:Generated_Source\PSoC4/Jetty_I2C_MASTER.c **** volatile uint32  Jetty_mstrRdBufIndex; /* Master Read buffer Index      */
  36:Generated_Source\PSoC4/Jetty_I2C_MASTER.c **** 
  37:Generated_Source\PSoC4/Jetty_I2C_MASTER.c **** /* Transmit buffer variables */
  38:Generated_Source\PSoC4/Jetty_I2C_MASTER.c **** volatile uint8 * Jetty_mstrWrBufPtr;   /* Pointer to Master Write buffer */
  39:Generated_Source\PSoC4/Jetty_I2C_MASTER.c **** volatile uint32  Jetty_mstrWrBufSize;  /* Master Write buffer size       */
  40:Generated_Source\PSoC4/Jetty_I2C_MASTER.c **** volatile uint32  Jetty_mstrWrBufIndex; /* Master Write buffer Index      */
  41:Generated_Source\PSoC4/Jetty_I2C_MASTER.c **** volatile uint32  Jetty_mstrWrBufIndexTmp; /* Master Write buffer Index Tmp */
  42:Generated_Source\PSoC4/Jetty_I2C_MASTER.c **** 
  43:Generated_Source\PSoC4/Jetty_I2C_MASTER.c **** #if (!Jetty_CY_SCBIP_V0 && \
  44:Generated_Source\PSoC4/Jetty_I2C_MASTER.c ****     Jetty_I2C_MULTI_MASTER_SLAVE_CONST && Jetty_I2C_WAKE_ENABLE_CONST)
  45:Generated_Source\PSoC4/Jetty_I2C_MASTER.c ****     static void Jetty_I2CMasterDisableEcAm(void);
  46:Generated_Source\PSoC4/Jetty_I2C_MASTER.c **** #else
  47:Generated_Source\PSoC4/Jetty_I2C_MASTER.c ****     #define Jetty_I2CMasterDisableEcAm()     do{ /* Empty */ }while(0)
  48:Generated_Source\PSoC4/Jetty_I2C_MASTER.c **** #endif /* (!Jetty_CY_SCBIP_V0) */
  49:Generated_Source\PSoC4/Jetty_I2C_MASTER.c **** 
  50:Generated_Source\PSoC4/Jetty_I2C_MASTER.c **** static uint32 Jetty_I2CMasterHandleStatus(uint32 status);
  51:Generated_Source\PSoC4/Jetty_I2C_MASTER.c **** static uint32 Jetty_I2CMasterWaitOneUnit(uint32 *timeout);
  52:Generated_Source\PSoC4/Jetty_I2C_MASTER.c **** 
  53:Generated_Source\PSoC4/Jetty_I2C_MASTER.c **** 
  54:Generated_Source\PSoC4/Jetty_I2C_MASTER.c **** /*******************************************************************************
  55:Generated_Source\PSoC4/Jetty_I2C_MASTER.c **** * Function Name: Jetty_I2CMasterWriteBuf
  56:Generated_Source\PSoC4/Jetty_I2C_MASTER.c **** ****************************************************************************//**
  57:Generated_Source\PSoC4/Jetty_I2C_MASTER.c **** *
  58:Generated_Source\PSoC4/Jetty_I2C_MASTER.c **** *  Automatically writes an entire buffer of data to a slave device.
  59:Generated_Source\PSoC4/Jetty_I2C_MASTER.c **** *  Once the data transfer is initiated by this function, further data transfer
  60:Generated_Source\PSoC4/Jetty_I2C_MASTER.c **** *  is handled by the included ISR.
  61:Generated_Source\PSoC4/Jetty_I2C_MASTER.c **** *  Enables the I2C interrupt and clears Jetty_I2C_MSTAT_WR_CMPLT
  62:Generated_Source\PSoC4/Jetty_I2C_MASTER.c **** *  status.
  63:Generated_Source\PSoC4/Jetty_I2C_MASTER.c **** *
  64:Generated_Source\PSoC4/Jetty_I2C_MASTER.c **** *  \param slaveAddr: 7-bit slave address.
  65:Generated_Source\PSoC4/Jetty_I2C_MASTER.c **** *  \param xferData: Pointer to buffer of data to be sent.
  66:Generated_Source\PSoC4/Jetty_I2C_MASTER.c **** *  \param cnt: Size of buffer to send.
  67:Generated_Source\PSoC4/Jetty_I2C_MASTER.c **** *  \param mode: Transfer mode defines:
  68:Generated_Source\PSoC4/Jetty_I2C_MASTER.c **** *  (1) Whether a start or restart condition is generated at the beginning
  69:Generated_Source\PSoC4/Jetty_I2C_MASTER.c **** *  of the transfer, and
  70:Generated_Source\PSoC4/Jetty_I2C_MASTER.c **** *  (2) Whether the transfer is completed or halted before the stop
  71:Generated_Source\PSoC4/Jetty_I2C_MASTER.c **** *  condition is generated on the bus.Transfer mode, mode constants
  72:Generated_Source\PSoC4/Jetty_I2C_MASTER.c **** *  may be ORed together.
  73:Generated_Source\PSoC4/Jetty_I2C_MASTER.c **** *  - Jetty_I2C_MODE_COMPLETE_XFER - Perform complete transfer
  74:Generated_Source\PSoC4/Jetty_I2C_MASTER.c **** *    from Start to Stop.
  75:Generated_Source\PSoC4/Jetty_I2C_MASTER.c **** *  - Jetty_I2C_MODE_REPEAT_START - Send Repeat Start instead
  76:Generated_Source\PSoC4/Jetty_I2C_MASTER.c **** *    of Start. A Stop is generated after transfer is completed unless
  77:Generated_Source\PSoC4/Jetty_I2C_MASTER.c **** *    NO_STOP is specified.
  78:Generated_Source\PSoC4/Jetty_I2C_MASTER.c **** *  - Jetty_I2C_MODE_NO_STOP Execute transfer without a Stop.
  79:Generated_Source\PSoC4/Jetty_I2C_MASTER.c **** *    The following transfer expected to perform ReStart.
  80:Generated_Source\PSoC4/Jetty_I2C_MASTER.c **** *
  81:Generated_Source\PSoC4/Jetty_I2C_MASTER.c **** * \return
  82:Generated_Source\PSoC4/Jetty_I2C_MASTER.c **** *  Error status.
  83:Generated_Source\PSoC4/Jetty_I2C_MASTER.c **** *  - Jetty_I2C_MSTR_NO_ERROR - Function complete without error.
  84:Generated_Source\PSoC4/Jetty_I2C_MASTER.c **** *    The master started the transfer.
  85:Generated_Source\PSoC4/Jetty_I2C_MASTER.c **** *  - Jetty_I2C_MSTR_BUS_BUSY - Bus is busy. Nothing was sent on
  86:Generated_Source\PSoC4/Jetty_I2C_MASTER.c **** *    the bus. The attempt has to be retried.
  87:Generated_Source\PSoC4/Jetty_I2C_MASTER.c **** *  - Jetty_I2C_MSTR_NOT_READY - Master is not ready for to start
  88:Generated_Source\PSoC4/Jetty_I2C_MASTER.c **** *    transfer. A master still has not completed previous transaction or a
ARM GAS  C:\Users\tsien\AppData\Local\Temp\ccVzEi8h.s 			page 3


  89:Generated_Source\PSoC4/Jetty_I2C_MASTER.c **** *    slave operation is in progress (in multi-master-slave configuration).
  90:Generated_Source\PSoC4/Jetty_I2C_MASTER.c **** *    Nothing was sent on the bus. The attempt has to be retried.
  91:Generated_Source\PSoC4/Jetty_I2C_MASTER.c **** *
  92:Generated_Source\PSoC4/Jetty_I2C_MASTER.c **** * \globalvars
  93:Generated_Source\PSoC4/Jetty_I2C_MASTER.c **** *  Jetty_mstrStatus  - used to store current status of I2C Master.
  94:Generated_Source\PSoC4/Jetty_I2C_MASTER.c **** *  Jetty_state       - used to store current state of software FSM.
  95:Generated_Source\PSoC4/Jetty_I2C_MASTER.c **** *  Jetty_mstrControl - used to control master end of transaction with
  96:Generated_Source\PSoC4/Jetty_I2C_MASTER.c **** *  or without the Stop generation.
  97:Generated_Source\PSoC4/Jetty_I2C_MASTER.c **** *  Jetty_mstrWrBufPtr - used to store pointer to master write buffer.
  98:Generated_Source\PSoC4/Jetty_I2C_MASTER.c **** *  Jetty_mstrWrBufIndex - used to current index within master write
  99:Generated_Source\PSoC4/Jetty_I2C_MASTER.c **** *  buffer.
 100:Generated_Source\PSoC4/Jetty_I2C_MASTER.c **** *  Jetty_mstrWrBufSize - used to store master write buffer size.
 101:Generated_Source\PSoC4/Jetty_I2C_MASTER.c **** *
 102:Generated_Source\PSoC4/Jetty_I2C_MASTER.c **** *******************************************************************************/
 103:Generated_Source\PSoC4/Jetty_I2C_MASTER.c **** uint32 Jetty_I2CMasterWriteBuf(uint32 slaveAddress, uint8 * wrData, uint32 cnt, uint32 mode)
 104:Generated_Source\PSoC4/Jetty_I2C_MASTER.c **** {
 105:Generated_Source\PSoC4/Jetty_I2C_MASTER.c ****     uint32 errStatus;
 106:Generated_Source\PSoC4/Jetty_I2C_MASTER.c **** 
 107:Generated_Source\PSoC4/Jetty_I2C_MASTER.c ****     errStatus = Jetty_I2C_MSTR_NOT_READY;
 108:Generated_Source\PSoC4/Jetty_I2C_MASTER.c **** 
 109:Generated_Source\PSoC4/Jetty_I2C_MASTER.c ****     if(NULL != wrData)  /* Check buffer pointer */
 110:Generated_Source\PSoC4/Jetty_I2C_MASTER.c ****     {
 111:Generated_Source\PSoC4/Jetty_I2C_MASTER.c ****         /* Check FSM state and bus before generating Start/ReStart condition */
 112:Generated_Source\PSoC4/Jetty_I2C_MASTER.c ****         if(Jetty_CHECK_I2C_FSM_IDLE)
 113:Generated_Source\PSoC4/Jetty_I2C_MASTER.c ****         {
 114:Generated_Source\PSoC4/Jetty_I2C_MASTER.c ****             Jetty_DisableInt();  /* Lock from interruption */
 115:Generated_Source\PSoC4/Jetty_I2C_MASTER.c **** 
 116:Generated_Source\PSoC4/Jetty_I2C_MASTER.c ****             /* Check bus state */
 117:Generated_Source\PSoC4/Jetty_I2C_MASTER.c ****             errStatus = Jetty_CHECK_I2C_STATUS(Jetty_I2C_STATUS_BUS_BUSY) ?
 118:Generated_Source\PSoC4/Jetty_I2C_MASTER.c ****                             Jetty_I2C_MSTR_BUS_BUSY : Jetty_I2C_MSTR_NO_ERROR;
 119:Generated_Source\PSoC4/Jetty_I2C_MASTER.c ****         }
 120:Generated_Source\PSoC4/Jetty_I2C_MASTER.c ****         else if(Jetty_CHECK_I2C_FSM_HALT)
 121:Generated_Source\PSoC4/Jetty_I2C_MASTER.c ****         {
 122:Generated_Source\PSoC4/Jetty_I2C_MASTER.c ****             Jetty_mstrStatus &= (uint16) ~Jetty_I2C_MSTAT_XFER_HALT;
 123:Generated_Source\PSoC4/Jetty_I2C_MASTER.c ****                               errStatus  = Jetty_I2C_MSTR_NO_ERROR;
 124:Generated_Source\PSoC4/Jetty_I2C_MASTER.c ****         }
 125:Generated_Source\PSoC4/Jetty_I2C_MASTER.c ****         else
 126:Generated_Source\PSoC4/Jetty_I2C_MASTER.c ****         {
 127:Generated_Source\PSoC4/Jetty_I2C_MASTER.c ****             /* Unexpected FSM state: exit */
 128:Generated_Source\PSoC4/Jetty_I2C_MASTER.c ****         }
 129:Generated_Source\PSoC4/Jetty_I2C_MASTER.c ****     }
 130:Generated_Source\PSoC4/Jetty_I2C_MASTER.c **** 
 131:Generated_Source\PSoC4/Jetty_I2C_MASTER.c ****     /* Check if master is ready to start  */
 132:Generated_Source\PSoC4/Jetty_I2C_MASTER.c ****     if(Jetty_I2C_MSTR_NO_ERROR == errStatus) /* No error proceed */
 133:Generated_Source\PSoC4/Jetty_I2C_MASTER.c ****     {
 134:Generated_Source\PSoC4/Jetty_I2C_MASTER.c ****         /* Non-empty for master-slave mode when wakeup enabled */
 135:Generated_Source\PSoC4/Jetty_I2C_MASTER.c ****         Jetty_I2CMasterDisableEcAm();
 136:Generated_Source\PSoC4/Jetty_I2C_MASTER.c **** 
 137:Generated_Source\PSoC4/Jetty_I2C_MASTER.c ****         /* Set up write transaction */
 138:Generated_Source\PSoC4/Jetty_I2C_MASTER.c ****         Jetty_state = Jetty_I2C_FSM_MSTR_WR_ADDR;
 139:Generated_Source\PSoC4/Jetty_I2C_MASTER.c ****         Jetty_mstrWrBufIndexTmp = 0u;
 140:Generated_Source\PSoC4/Jetty_I2C_MASTER.c ****         Jetty_mstrWrBufIndex    = 0u;
 141:Generated_Source\PSoC4/Jetty_I2C_MASTER.c ****         Jetty_mstrWrBufSize     = cnt;
 142:Generated_Source\PSoC4/Jetty_I2C_MASTER.c ****         Jetty_mstrWrBufPtr      = (volatile uint8 *) wrData;
 143:Generated_Source\PSoC4/Jetty_I2C_MASTER.c ****         Jetty_mstrControl       = (uint8) mode;
 144:Generated_Source\PSoC4/Jetty_I2C_MASTER.c **** 
 145:Generated_Source\PSoC4/Jetty_I2C_MASTER.c ****         slaveAddress = Jetty_GET_I2C_8BIT_ADDRESS(slaveAddress);
ARM GAS  C:\Users\tsien\AppData\Local\Temp\ccVzEi8h.s 			page 4


 146:Generated_Source\PSoC4/Jetty_I2C_MASTER.c **** 
 147:Generated_Source\PSoC4/Jetty_I2C_MASTER.c ****         Jetty_mstrStatus &= (uint16) ~Jetty_I2C_MSTAT_WR_CMPLT;
 148:Generated_Source\PSoC4/Jetty_I2C_MASTER.c **** 
 149:Generated_Source\PSoC4/Jetty_I2C_MASTER.c ****         Jetty_ClearTxInterruptSource    (Jetty_INTR_TX_UNDERFLOW);
 150:Generated_Source\PSoC4/Jetty_I2C_MASTER.c ****         Jetty_ClearMasterInterruptSource(Jetty_INTR_MASTER_ALL);
 151:Generated_Source\PSoC4/Jetty_I2C_MASTER.c ****         Jetty_SetMasterInterruptMode    (Jetty_I2C_INTR_MASTER_MASK);
 152:Generated_Source\PSoC4/Jetty_I2C_MASTER.c **** 
 153:Generated_Source\PSoC4/Jetty_I2C_MASTER.c ****         /* The TX and RX FIFO have to be EMPTY */
 154:Generated_Source\PSoC4/Jetty_I2C_MASTER.c **** 
 155:Generated_Source\PSoC4/Jetty_I2C_MASTER.c ****         /* Enable interrupt source to catch when address is sent */
 156:Generated_Source\PSoC4/Jetty_I2C_MASTER.c ****         Jetty_SetTxInterruptMode(Jetty_INTR_TX_UNDERFLOW);
 157:Generated_Source\PSoC4/Jetty_I2C_MASTER.c **** 
 158:Generated_Source\PSoC4/Jetty_I2C_MASTER.c ****         /* Generate Start or ReStart */
 159:Generated_Source\PSoC4/Jetty_I2C_MASTER.c ****         if(Jetty_CHECK_I2C_MODE_RESTART(mode))
 160:Generated_Source\PSoC4/Jetty_I2C_MASTER.c ****         {
 161:Generated_Source\PSoC4/Jetty_I2C_MASTER.c ****             Jetty_I2C_MASTER_GENERATE_RESTART;
 162:Generated_Source\PSoC4/Jetty_I2C_MASTER.c ****             Jetty_TX_FIFO_WR_REG = slaveAddress;
 163:Generated_Source\PSoC4/Jetty_I2C_MASTER.c ****         }
 164:Generated_Source\PSoC4/Jetty_I2C_MASTER.c ****         else
 165:Generated_Source\PSoC4/Jetty_I2C_MASTER.c ****         {
 166:Generated_Source\PSoC4/Jetty_I2C_MASTER.c ****             Jetty_TX_FIFO_WR_REG = slaveAddress;
 167:Generated_Source\PSoC4/Jetty_I2C_MASTER.c ****             Jetty_I2C_MASTER_GENERATE_START;
 168:Generated_Source\PSoC4/Jetty_I2C_MASTER.c ****         }
 169:Generated_Source\PSoC4/Jetty_I2C_MASTER.c ****     }
 170:Generated_Source\PSoC4/Jetty_I2C_MASTER.c **** 
 171:Generated_Source\PSoC4/Jetty_I2C_MASTER.c ****     Jetty_EnableInt();   /* Release lock */
 172:Generated_Source\PSoC4/Jetty_I2C_MASTER.c **** 
 173:Generated_Source\PSoC4/Jetty_I2C_MASTER.c ****     return(errStatus);
 174:Generated_Source\PSoC4/Jetty_I2C_MASTER.c **** }
 175:Generated_Source\PSoC4/Jetty_I2C_MASTER.c **** 
 176:Generated_Source\PSoC4/Jetty_I2C_MASTER.c **** 
 177:Generated_Source\PSoC4/Jetty_I2C_MASTER.c **** /*******************************************************************************
 178:Generated_Source\PSoC4/Jetty_I2C_MASTER.c **** * Function Name: Jetty_I2CMasterReadBuf
 179:Generated_Source\PSoC4/Jetty_I2C_MASTER.c **** ****************************************************************************//**
 180:Generated_Source\PSoC4/Jetty_I2C_MASTER.c **** *
 181:Generated_Source\PSoC4/Jetty_I2C_MASTER.c **** *  Automatically reads an entire buffer of data from a slave device.
 182:Generated_Source\PSoC4/Jetty_I2C_MASTER.c **** *  Once the data transfer is initiated by this function, further data transfer
 183:Generated_Source\PSoC4/Jetty_I2C_MASTER.c **** *  is handled by the included ISR.
 184:Generated_Source\PSoC4/Jetty_I2C_MASTER.c **** *  Enables the I2C interrupt and clears Jetty_I2C_MSTAT_RD_CMPLT
 185:Generated_Source\PSoC4/Jetty_I2C_MASTER.c **** *  status.
 186:Generated_Source\PSoC4/Jetty_I2C_MASTER.c **** *
 187:Generated_Source\PSoC4/Jetty_I2C_MASTER.c **** *  \param slaveAddr: 7-bit slave address.
 188:Generated_Source\PSoC4/Jetty_I2C_MASTER.c **** *  \param xferData: Pointer to buffer of data to be sent.
 189:Generated_Source\PSoC4/Jetty_I2C_MASTER.c **** *  \param cnt: Size of buffer to send.
 190:Generated_Source\PSoC4/Jetty_I2C_MASTER.c **** *  \param mode: Transfer mode defines:
 191:Generated_Source\PSoC4/Jetty_I2C_MASTER.c **** *  (1) Whether a start or restart condition is generated at the beginning
 192:Generated_Source\PSoC4/Jetty_I2C_MASTER.c **** *  of the transfer, and
 193:Generated_Source\PSoC4/Jetty_I2C_MASTER.c **** *  (2) Whether the transfer is completed or halted before the stop
 194:Generated_Source\PSoC4/Jetty_I2C_MASTER.c **** *  condition is generated on the bus.Transfer mode, mode constants may
 195:Generated_Source\PSoC4/Jetty_I2C_MASTER.c **** *  be ORed together. See Jetty_I2CMasterWriteBuf()
 196:Generated_Source\PSoC4/Jetty_I2C_MASTER.c **** *  function for constants.
 197:Generated_Source\PSoC4/Jetty_I2C_MASTER.c **** *
 198:Generated_Source\PSoC4/Jetty_I2C_MASTER.c **** * \return
 199:Generated_Source\PSoC4/Jetty_I2C_MASTER.c **** *  Error status.See Jetty_I2CMasterWriteBuf()
 200:Generated_Source\PSoC4/Jetty_I2C_MASTER.c **** *  function for constants.
 201:Generated_Source\PSoC4/Jetty_I2C_MASTER.c **** *
 202:Generated_Source\PSoC4/Jetty_I2C_MASTER.c **** * \globalvars
ARM GAS  C:\Users\tsien\AppData\Local\Temp\ccVzEi8h.s 			page 5


 203:Generated_Source\PSoC4/Jetty_I2C_MASTER.c **** *  Jetty_mstrStatus  - used to store current status of I2C Master.
 204:Generated_Source\PSoC4/Jetty_I2C_MASTER.c **** *  Jetty_state       - used to store current state of software FSM.
 205:Generated_Source\PSoC4/Jetty_I2C_MASTER.c **** *  Jetty_mstrControl - used to control master end of transaction with
 206:Generated_Source\PSoC4/Jetty_I2C_MASTER.c **** *  or without the Stop generation.
 207:Generated_Source\PSoC4/Jetty_I2C_MASTER.c **** *  Jetty_mstrRdBufPtr - used to store pointer to master read buffer.
 208:Generated_Source\PSoC4/Jetty_I2C_MASTER.c **** *  Jetty_mstrRdBufIndex - used to current index within master read
 209:Generated_Source\PSoC4/Jetty_I2C_MASTER.c **** *  buffer.
 210:Generated_Source\PSoC4/Jetty_I2C_MASTER.c **** *  Jetty_mstrRdBufSize - used to store master read buffer size.
 211:Generated_Source\PSoC4/Jetty_I2C_MASTER.c **** *
 212:Generated_Source\PSoC4/Jetty_I2C_MASTER.c **** *******************************************************************************/
 213:Generated_Source\PSoC4/Jetty_I2C_MASTER.c **** uint32 Jetty_I2CMasterReadBuf(uint32 slaveAddress, uint8 * rdData, uint32 cnt, uint32 mode)
 214:Generated_Source\PSoC4/Jetty_I2C_MASTER.c **** {
 215:Generated_Source\PSoC4/Jetty_I2C_MASTER.c ****     uint32 errStatus;
 216:Generated_Source\PSoC4/Jetty_I2C_MASTER.c **** 
 217:Generated_Source\PSoC4/Jetty_I2C_MASTER.c ****     errStatus = Jetty_I2C_MSTR_NOT_READY;
 218:Generated_Source\PSoC4/Jetty_I2C_MASTER.c **** 
 219:Generated_Source\PSoC4/Jetty_I2C_MASTER.c ****     if(NULL != rdData)
 220:Generated_Source\PSoC4/Jetty_I2C_MASTER.c ****     {
 221:Generated_Source\PSoC4/Jetty_I2C_MASTER.c ****         /* Check FSM state and bus before generating Start/ReStart condition */
 222:Generated_Source\PSoC4/Jetty_I2C_MASTER.c ****         if(Jetty_CHECK_I2C_FSM_IDLE)
 223:Generated_Source\PSoC4/Jetty_I2C_MASTER.c ****         {
 224:Generated_Source\PSoC4/Jetty_I2C_MASTER.c ****             Jetty_DisableInt();  /* Lock from interruption */
 225:Generated_Source\PSoC4/Jetty_I2C_MASTER.c **** 
 226:Generated_Source\PSoC4/Jetty_I2C_MASTER.c ****             /* Check bus state */
 227:Generated_Source\PSoC4/Jetty_I2C_MASTER.c ****             errStatus = Jetty_CHECK_I2C_STATUS(Jetty_I2C_STATUS_BUS_BUSY) ?
 228:Generated_Source\PSoC4/Jetty_I2C_MASTER.c ****                             Jetty_I2C_MSTR_BUS_BUSY : Jetty_I2C_MSTR_NO_ERROR;
 229:Generated_Source\PSoC4/Jetty_I2C_MASTER.c ****         }
 230:Generated_Source\PSoC4/Jetty_I2C_MASTER.c ****         else if(Jetty_CHECK_I2C_FSM_HALT)
 231:Generated_Source\PSoC4/Jetty_I2C_MASTER.c ****         {
 232:Generated_Source\PSoC4/Jetty_I2C_MASTER.c ****             Jetty_mstrStatus &= (uint16) ~Jetty_I2C_MSTAT_XFER_HALT;
 233:Generated_Source\PSoC4/Jetty_I2C_MASTER.c ****                               errStatus  =  Jetty_I2C_MSTR_NO_ERROR;
 234:Generated_Source\PSoC4/Jetty_I2C_MASTER.c ****         }
 235:Generated_Source\PSoC4/Jetty_I2C_MASTER.c ****         else
 236:Generated_Source\PSoC4/Jetty_I2C_MASTER.c ****         {
 237:Generated_Source\PSoC4/Jetty_I2C_MASTER.c ****             /* Unexpected FSM state: exit */
 238:Generated_Source\PSoC4/Jetty_I2C_MASTER.c ****         }
 239:Generated_Source\PSoC4/Jetty_I2C_MASTER.c ****     }
 240:Generated_Source\PSoC4/Jetty_I2C_MASTER.c **** 
 241:Generated_Source\PSoC4/Jetty_I2C_MASTER.c ****     /* Check master ready to proceed */
 242:Generated_Source\PSoC4/Jetty_I2C_MASTER.c ****     if(Jetty_I2C_MSTR_NO_ERROR == errStatus) /* No error proceed */
 243:Generated_Source\PSoC4/Jetty_I2C_MASTER.c ****     {
 244:Generated_Source\PSoC4/Jetty_I2C_MASTER.c ****         /* Non-empty for master-slave mode when wakeup enabled */
 245:Generated_Source\PSoC4/Jetty_I2C_MASTER.c ****         Jetty_I2CMasterDisableEcAm();
 246:Generated_Source\PSoC4/Jetty_I2C_MASTER.c **** 
 247:Generated_Source\PSoC4/Jetty_I2C_MASTER.c ****         /* Set up read transaction */
 248:Generated_Source\PSoC4/Jetty_I2C_MASTER.c ****         Jetty_state = Jetty_I2C_FSM_MSTR_RD_ADDR;
 249:Generated_Source\PSoC4/Jetty_I2C_MASTER.c ****         Jetty_mstrRdBufIndex = 0u;
 250:Generated_Source\PSoC4/Jetty_I2C_MASTER.c ****         Jetty_mstrRdBufSize  = cnt;
 251:Generated_Source\PSoC4/Jetty_I2C_MASTER.c ****         Jetty_mstrRdBufPtr   = (volatile uint8 *) rdData;
 252:Generated_Source\PSoC4/Jetty_I2C_MASTER.c ****         Jetty_mstrControl    = (uint8) mode;
 253:Generated_Source\PSoC4/Jetty_I2C_MASTER.c **** 
 254:Generated_Source\PSoC4/Jetty_I2C_MASTER.c ****         slaveAddress = (Jetty_GET_I2C_8BIT_ADDRESS(slaveAddress) | Jetty_I2C_READ_FLAG);
 255:Generated_Source\PSoC4/Jetty_I2C_MASTER.c **** 
 256:Generated_Source\PSoC4/Jetty_I2C_MASTER.c ****         Jetty_mstrStatus &= (uint16) ~Jetty_I2C_MSTAT_RD_CMPLT;
 257:Generated_Source\PSoC4/Jetty_I2C_MASTER.c **** 
 258:Generated_Source\PSoC4/Jetty_I2C_MASTER.c ****         Jetty_ClearMasterInterruptSource(Jetty_INTR_MASTER_ALL);
 259:Generated_Source\PSoC4/Jetty_I2C_MASTER.c ****         Jetty_SetMasterInterruptMode    (Jetty_I2C_INTR_MASTER_MASK);
ARM GAS  C:\Users\tsien\AppData\Local\Temp\ccVzEi8h.s 			page 6


 260:Generated_Source\PSoC4/Jetty_I2C_MASTER.c **** 
 261:Generated_Source\PSoC4/Jetty_I2C_MASTER.c ****         /* TX and RX FIFO have to be EMPTY */
 262:Generated_Source\PSoC4/Jetty_I2C_MASTER.c **** 
 263:Generated_Source\PSoC4/Jetty_I2C_MASTER.c ****         /* Prepare reading */
 264:Generated_Source\PSoC4/Jetty_I2C_MASTER.c ****         if(Jetty_mstrRdBufSize < Jetty_I2C_FIFO_SIZE)
 265:Generated_Source\PSoC4/Jetty_I2C_MASTER.c ****         {
 266:Generated_Source\PSoC4/Jetty_I2C_MASTER.c ****             /* Reading byte-by-byte */
 267:Generated_Source\PSoC4/Jetty_I2C_MASTER.c ****             Jetty_SetRxInterruptMode(Jetty_INTR_RX_NOT_EMPTY);
 268:Generated_Source\PSoC4/Jetty_I2C_MASTER.c ****         }
 269:Generated_Source\PSoC4/Jetty_I2C_MASTER.c ****         else
 270:Generated_Source\PSoC4/Jetty_I2C_MASTER.c ****         {
 271:Generated_Source\PSoC4/Jetty_I2C_MASTER.c ****             /* Receive RX FIFO chunks */
 272:Generated_Source\PSoC4/Jetty_I2C_MASTER.c ****             Jetty_ENABLE_MASTER_AUTO_DATA_ACK;
 273:Generated_Source\PSoC4/Jetty_I2C_MASTER.c ****             Jetty_SetRxInterruptMode(Jetty_INTR_RX_FULL);
 274:Generated_Source\PSoC4/Jetty_I2C_MASTER.c ****         }
 275:Generated_Source\PSoC4/Jetty_I2C_MASTER.c **** 
 276:Generated_Source\PSoC4/Jetty_I2C_MASTER.c ****         /* Generate Start or ReStart */
 277:Generated_Source\PSoC4/Jetty_I2C_MASTER.c ****         if(Jetty_CHECK_I2C_MODE_RESTART(mode))
 278:Generated_Source\PSoC4/Jetty_I2C_MASTER.c ****         {
 279:Generated_Source\PSoC4/Jetty_I2C_MASTER.c ****             Jetty_I2C_MASTER_GENERATE_RESTART;
 280:Generated_Source\PSoC4/Jetty_I2C_MASTER.c ****             Jetty_TX_FIFO_WR_REG = slaveAddress;
 281:Generated_Source\PSoC4/Jetty_I2C_MASTER.c ****         }
 282:Generated_Source\PSoC4/Jetty_I2C_MASTER.c ****         else
 283:Generated_Source\PSoC4/Jetty_I2C_MASTER.c ****         {
 284:Generated_Source\PSoC4/Jetty_I2C_MASTER.c ****             Jetty_TX_FIFO_WR_REG = slaveAddress;
 285:Generated_Source\PSoC4/Jetty_I2C_MASTER.c ****             Jetty_I2C_MASTER_GENERATE_START;
 286:Generated_Source\PSoC4/Jetty_I2C_MASTER.c ****         }
 287:Generated_Source\PSoC4/Jetty_I2C_MASTER.c ****     }
 288:Generated_Source\PSoC4/Jetty_I2C_MASTER.c **** 
 289:Generated_Source\PSoC4/Jetty_I2C_MASTER.c ****     Jetty_EnableInt();   /* Release lock */
 290:Generated_Source\PSoC4/Jetty_I2C_MASTER.c **** 
 291:Generated_Source\PSoC4/Jetty_I2C_MASTER.c ****     return(errStatus);
 292:Generated_Source\PSoC4/Jetty_I2C_MASTER.c **** }
 293:Generated_Source\PSoC4/Jetty_I2C_MASTER.c **** 
 294:Generated_Source\PSoC4/Jetty_I2C_MASTER.c **** 
 295:Generated_Source\PSoC4/Jetty_I2C_MASTER.c **** /*******************************************************************************
 296:Generated_Source\PSoC4/Jetty_I2C_MASTER.c **** * Function Name: Jetty_I2CMasterSendStart
 297:Generated_Source\PSoC4/Jetty_I2C_MASTER.c **** ****************************************************************************//**
 298:Generated_Source\PSoC4/Jetty_I2C_MASTER.c **** *
 299:Generated_Source\PSoC4/Jetty_I2C_MASTER.c **** * Generates Start condition and sends slave address with read/write bit.
 300:Generated_Source\PSoC4/Jetty_I2C_MASTER.c **** * Disables the I2C interrupt.
 301:Generated_Source\PSoC4/Jetty_I2C_MASTER.c **** * This function is blocking and does not return until start condition and
 302:Generated_Source\PSoC4/Jetty_I2C_MASTER.c **** * address byte are sent and ACK/NACK response is received or errors occurred.
 303:Generated_Source\PSoC4/Jetty_I2C_MASTER.c **** *
 304:Generated_Source\PSoC4/Jetty_I2C_MASTER.c **** * \param slaveAddress
 305:Generated_Source\PSoC4/Jetty_I2C_MASTER.c **** * Right justified 7-bit Slave address (valid range 8 to 120).
 306:Generated_Source\PSoC4/Jetty_I2C_MASTER.c **** *
 307:Generated_Source\PSoC4/Jetty_I2C_MASTER.c **** * \param bitRnW
 308:Generated_Source\PSoC4/Jetty_I2C_MASTER.c **** * Direction of the following transfer. It is defined by read/write bit within
 309:Generated_Source\PSoC4/Jetty_I2C_MASTER.c **** * address byte.
 310:Generated_Source\PSoC4/Jetty_I2C_MASTER.c **** *  - Jetty_I2C_WRITE_XFER_MODE - Set write direction for the
 311:Generated_Source\PSoC4/Jetty_I2C_MASTER.c **** *    following transfer.
 312:Generated_Source\PSoC4/Jetty_I2C_MASTER.c **** *  - Jetty_I2C_READ_XFER_MODE - Set read direction for the
 313:Generated_Source\PSoC4/Jetty_I2C_MASTER.c **** *    following transfer.
 314:Generated_Source\PSoC4/Jetty_I2C_MASTER.c **** *
 315:Generated_Source\PSoC4/Jetty_I2C_MASTER.c **** * \param timeoutMs
 316:Generated_Source\PSoC4/Jetty_I2C_MASTER.c **** * Defines in milliseconds the time that this function can block for.
ARM GAS  C:\Users\tsien\AppData\Local\Temp\ccVzEi8h.s 			page 7


 317:Generated_Source\PSoC4/Jetty_I2C_MASTER.c **** * If that time expires, the function returns. If a zero is passed,
 318:Generated_Source\PSoC4/Jetty_I2C_MASTER.c **** * the function waits forever for the action to complete. If a timeout occurs,
 319:Generated_Source\PSoC4/Jetty_I2C_MASTER.c **** * the SCB block is reset. Note The maximum value is (maximum uint32)/1000.
 320:Generated_Source\PSoC4/Jetty_I2C_MASTER.c **** *
 321:Generated_Source\PSoC4/Jetty_I2C_MASTER.c **** * \return
 322:Generated_Source\PSoC4/Jetty_I2C_MASTER.c **** * Error status.
 323:Generated_Source\PSoC4/Jetty_I2C_MASTER.c **** *  - Jetty_I2C_MSTR_NO_ERROR - Function complete without error.
 324:Generated_Source\PSoC4/Jetty_I2C_MASTER.c **** *  - Jetty_I2C_MSTR_BUS_BUSY - Bus is busy.
 325:Generated_Source\PSoC4/Jetty_I2C_MASTER.c **** *    Nothing was sent on the bus. The attempt has to be retried.
 326:Generated_Source\PSoC4/Jetty_I2C_MASTER.c **** *  - Jetty_I2C_MSTR_NOT_READY - Master is not ready for to
 327:Generated_Source\PSoC4/Jetty_I2C_MASTER.c **** *    start transfer.
 328:Generated_Source\PSoC4/Jetty_I2C_MASTER.c **** *    A master still has not completed previous transaction or a slave
 329:Generated_Source\PSoC4/Jetty_I2C_MASTER.c **** *    operation is in progress (in multi-master-slave configuration).
 330:Generated_Source\PSoC4/Jetty_I2C_MASTER.c **** *    Nothing was sent on the bus. The attempt has to be retried.
 331:Generated_Source\PSoC4/Jetty_I2C_MASTER.c **** *  - Jetty_I2C_MSTR_ERR_LB_NAK - Error condition: Last byte was
 332:Generated_Source\PSoC4/Jetty_I2C_MASTER.c **** *    NAKed.
 333:Generated_Source\PSoC4/Jetty_I2C_MASTER.c **** *  - Jetty_I2C_MSTR_ERR_ARB_LOST - Error condition: Master lost
 334:Generated_Source\PSoC4/Jetty_I2C_MASTER.c **** *    arbitration.
 335:Generated_Source\PSoC4/Jetty_I2C_MASTER.c **** *  - Jetty_I2C_MSTR_ERR_BUS_ERR - Error condition: Master
 336:Generated_Source\PSoC4/Jetty_I2C_MASTER.c **** *    encountered a bus error. Bus error is misplaced start or stop detection.
 337:Generated_Source\PSoC4/Jetty_I2C_MASTER.c **** *  - Jetty_I2C_MSTR_ERR_ABORT_START - Error condition: The start
 338:Generated_Source\PSoC4/Jetty_I2C_MASTER.c **** *    condition generation was aborted due to beginning of Slave operation.
 339:Generated_Source\PSoC4/Jetty_I2C_MASTER.c **** *    This error condition is only applicable for Multi-Master-Slave mode.
 340:Generated_Source\PSoC4/Jetty_I2C_MASTER.c **** *
 341:Generated_Source\PSoC4/Jetty_I2C_MASTER.c **** * \globalvars
 342:Generated_Source\PSoC4/Jetty_I2C_MASTER.c **** * Jetty_state - used to store current state of software FSM.
 343:Generated_Source\PSoC4/Jetty_I2C_MASTER.c **** *
 344:Generated_Source\PSoC4/Jetty_I2C_MASTER.c **** *******************************************************************************/
 345:Generated_Source\PSoC4/Jetty_I2C_MASTER.c **** uint32 Jetty_I2CMasterSendStart(uint32 slaveAddress, uint32 bitRnW, uint32 timeoutMs)
 346:Generated_Source\PSoC4/Jetty_I2C_MASTER.c **** {
 347:Generated_Source\PSoC4/Jetty_I2C_MASTER.c ****     uint32 errStatus = Jetty_I2C_MSTR_NOT_READY;
 348:Generated_Source\PSoC4/Jetty_I2C_MASTER.c **** 
 349:Generated_Source\PSoC4/Jetty_I2C_MASTER.c ****     if(Jetty_CHECK_I2C_FSM_IDLE)
 350:Generated_Source\PSoC4/Jetty_I2C_MASTER.c ****     {
 351:Generated_Source\PSoC4/Jetty_I2C_MASTER.c ****         Jetty_DisableInt();  /* Lock from interruption */
 352:Generated_Source\PSoC4/Jetty_I2C_MASTER.c **** 
 353:Generated_Source\PSoC4/Jetty_I2C_MASTER.c ****         if(Jetty_CHECK_I2C_STATUS(Jetty_I2C_STATUS_BUS_BUSY))
 354:Generated_Source\PSoC4/Jetty_I2C_MASTER.c ****         {
 355:Generated_Source\PSoC4/Jetty_I2C_MASTER.c ****             errStatus = Jetty_I2C_MSTR_BUS_BUSY;
 356:Generated_Source\PSoC4/Jetty_I2C_MASTER.c ****         }
 357:Generated_Source\PSoC4/Jetty_I2C_MASTER.c ****         else
 358:Generated_Source\PSoC4/Jetty_I2C_MASTER.c ****         {
 359:Generated_Source\PSoC4/Jetty_I2C_MASTER.c ****             uint32 locStatus;
 360:Generated_Source\PSoC4/Jetty_I2C_MASTER.c ****             uint32 timeout = Jetty_I2C_CONVERT_TIMEOUT_TO_US(timeoutMs);
 361:Generated_Source\PSoC4/Jetty_I2C_MASTER.c **** 
 362:Generated_Source\PSoC4/Jetty_I2C_MASTER.c ****             /* Non-empty for master-slave mode when wakeup enabled */
 363:Generated_Source\PSoC4/Jetty_I2C_MASTER.c ****             Jetty_I2CMasterDisableEcAm();
 364:Generated_Source\PSoC4/Jetty_I2C_MASTER.c **** 
 365:Generated_Source\PSoC4/Jetty_I2C_MASTER.c ****             /* Clean up the hardware before a transaction. */
 366:Generated_Source\PSoC4/Jetty_I2C_MASTER.c ****             Jetty_SetMasterInterruptMode    (Jetty_NO_INTR_SOURCES);
 367:Generated_Source\PSoC4/Jetty_I2C_MASTER.c ****             Jetty_ClearMasterInterruptSource(Jetty_INTR_MASTER_ALL);
 368:Generated_Source\PSoC4/Jetty_I2C_MASTER.c ****             Jetty_ClearRxInterruptSource    (Jetty_INTR_RX_ALL);
 369:Generated_Source\PSoC4/Jetty_I2C_MASTER.c **** 
 370:Generated_Source\PSoC4/Jetty_I2C_MASTER.c ****             slaveAddress = Jetty_GET_I2C_8BIT_ADDRESS(slaveAddress);
 371:Generated_Source\PSoC4/Jetty_I2C_MASTER.c **** 
 372:Generated_Source\PSoC4/Jetty_I2C_MASTER.c ****             if(0u == bitRnW) /* Write direction */
 373:Generated_Source\PSoC4/Jetty_I2C_MASTER.c ****             {
ARM GAS  C:\Users\tsien\AppData\Local\Temp\ccVzEi8h.s 			page 8


 374:Generated_Source\PSoC4/Jetty_I2C_MASTER.c ****                 Jetty_state = Jetty_I2C_FSM_MSTR_WR_DATA;
 375:Generated_Source\PSoC4/Jetty_I2C_MASTER.c ****             }
 376:Generated_Source\PSoC4/Jetty_I2C_MASTER.c ****             else             /* Read direction */
 377:Generated_Source\PSoC4/Jetty_I2C_MASTER.c ****             {
 378:Generated_Source\PSoC4/Jetty_I2C_MASTER.c ****                 Jetty_state = Jetty_I2C_FSM_MSTR_RD_DATA;
 379:Generated_Source\PSoC4/Jetty_I2C_MASTER.c ****                          slaveAddress |= Jetty_I2C_READ_FLAG;
 380:Generated_Source\PSoC4/Jetty_I2C_MASTER.c ****             }
 381:Generated_Source\PSoC4/Jetty_I2C_MASTER.c **** 
 382:Generated_Source\PSoC4/Jetty_I2C_MASTER.c ****             /* TX and RX FIFO have to be empty at here */
 383:Generated_Source\PSoC4/Jetty_I2C_MASTER.c **** 
 384:Generated_Source\PSoC4/Jetty_I2C_MASTER.c ****              /* Generate Start and send address */
 385:Generated_Source\PSoC4/Jetty_I2C_MASTER.c ****             Jetty_TX_FIFO_WR_REG = slaveAddress;
 386:Generated_Source\PSoC4/Jetty_I2C_MASTER.c ****             Jetty_I2C_MASTER_GENERATE_START;
 387:Generated_Source\PSoC4/Jetty_I2C_MASTER.c **** 
 388:Generated_Source\PSoC4/Jetty_I2C_MASTER.c ****             /* Wait until address has been transferred. Note that for master reads at least one byt
 389:Generated_Source\PSoC4/Jetty_I2C_MASTER.c ****             do
 390:Generated_Source\PSoC4/Jetty_I2C_MASTER.c ****             {
 391:Generated_Source\PSoC4/Jetty_I2C_MASTER.c ****                 locStatus  = Jetty_GetMasterInterruptSource() & Jetty_INTR_MASTER_SEND_BYTE;
 392:Generated_Source\PSoC4/Jetty_I2C_MASTER.c ****                 locStatus |= Jetty_GetSlaveInterruptSource() & Jetty_SLAVE_INTR_I2C_ADDR;
 393:Generated_Source\PSoC4/Jetty_I2C_MASTER.c ****                 locStatus |= Jetty_I2CMasterWaitOneUnit(&timeout);
 394:Generated_Source\PSoC4/Jetty_I2C_MASTER.c ****             }
 395:Generated_Source\PSoC4/Jetty_I2C_MASTER.c ****             while (0u == locStatus);
 396:Generated_Source\PSoC4/Jetty_I2C_MASTER.c **** 
 397:Generated_Source\PSoC4/Jetty_I2C_MASTER.c ****             /* Handle completion event and convert to status */
 398:Generated_Source\PSoC4/Jetty_I2C_MASTER.c ****             errStatus = Jetty_I2CMasterHandleStatus(locStatus);
 399:Generated_Source\PSoC4/Jetty_I2C_MASTER.c ****         }
 400:Generated_Source\PSoC4/Jetty_I2C_MASTER.c **** 
 401:Generated_Source\PSoC4/Jetty_I2C_MASTER.c ****         Jetty_EnableInt();  /* Release lock */
 402:Generated_Source\PSoC4/Jetty_I2C_MASTER.c ****     }
 403:Generated_Source\PSoC4/Jetty_I2C_MASTER.c **** 
 404:Generated_Source\PSoC4/Jetty_I2C_MASTER.c ****     return(errStatus);
 405:Generated_Source\PSoC4/Jetty_I2C_MASTER.c **** }
 406:Generated_Source\PSoC4/Jetty_I2C_MASTER.c **** 
 407:Generated_Source\PSoC4/Jetty_I2C_MASTER.c **** 
 408:Generated_Source\PSoC4/Jetty_I2C_MASTER.c **** /*******************************************************************************
 409:Generated_Source\PSoC4/Jetty_I2C_MASTER.c **** * Function Name: Jetty_I2CMasterSendRestart
 410:Generated_Source\PSoC4/Jetty_I2C_MASTER.c **** ****************************************************************************//**
 411:Generated_Source\PSoC4/Jetty_I2C_MASTER.c **** *
 412:Generated_Source\PSoC4/Jetty_I2C_MASTER.c **** * Generates Restart condition and sends slave address with read/write bit.
 413:Generated_Source\PSoC4/Jetty_I2C_MASTER.c **** * This function is blocking and does not return until start condition and
 414:Generated_Source\PSoC4/Jetty_I2C_MASTER.c **** * address are sent and ACK/NACK response is received or errors occurred.
 415:Generated_Source\PSoC4/Jetty_I2C_MASTER.c **** *
 416:Generated_Source\PSoC4/Jetty_I2C_MASTER.c **** * \param slaveAddress
 417:Generated_Source\PSoC4/Jetty_I2C_MASTER.c **** * Right justified 7-bit Slave address (valid range 8 to 120).
 418:Generated_Source\PSoC4/Jetty_I2C_MASTER.c **** *
 419:Generated_Source\PSoC4/Jetty_I2C_MASTER.c **** * \param bitRnW
 420:Generated_Source\PSoC4/Jetty_I2C_MASTER.c **** * Direction of the following transfer. It is defined by read/write bit within
 421:Generated_Source\PSoC4/Jetty_I2C_MASTER.c **** * address byte.See Jetty_I2CMasterSendStart() function for constants.
 422:Generated_Source\PSoC4/Jetty_I2C_MASTER.c **** *
 423:Generated_Source\PSoC4/Jetty_I2C_MASTER.c **** * \param timeoutMs
 424:Generated_Source\PSoC4/Jetty_I2C_MASTER.c **** * Defines in milliseconds the time that this function can block for.
 425:Generated_Source\PSoC4/Jetty_I2C_MASTER.c **** * If that time expires, the function returns. If a zero is passed,
 426:Generated_Source\PSoC4/Jetty_I2C_MASTER.c **** * the function waits forever for the action to complete. If a timeout occurs,
 427:Generated_Source\PSoC4/Jetty_I2C_MASTER.c **** * the SCB block is reset. Note The maximum value is (maximum uint32)/1000.
 428:Generated_Source\PSoC4/Jetty_I2C_MASTER.c **** *
 429:Generated_Source\PSoC4/Jetty_I2C_MASTER.c **** * \return
 430:Generated_Source\PSoC4/Jetty_I2C_MASTER.c **** * Error status.
ARM GAS  C:\Users\tsien\AppData\Local\Temp\ccVzEi8h.s 			page 9


 431:Generated_Source\PSoC4/Jetty_I2C_MASTER.c **** * See Jetty_I2CMasterSendStart() function for constants.
 432:Generated_Source\PSoC4/Jetty_I2C_MASTER.c **** *
 433:Generated_Source\PSoC4/Jetty_I2C_MASTER.c **** * \sideeffect
 434:Generated_Source\PSoC4/Jetty_I2C_MASTER.c **** * A valid Start or ReStart condition must be generated before calling
 435:Generated_Source\PSoC4/Jetty_I2C_MASTER.c **** * this function. This function does nothing if Start or ReStart conditions
 436:Generated_Source\PSoC4/Jetty_I2C_MASTER.c **** * failed before this function was called.
 437:Generated_Source\PSoC4/Jetty_I2C_MASTER.c **** * For read transaction, at least one byte has to be read before ReStart
 438:Generated_Source\PSoC4/Jetty_I2C_MASTER.c **** * generation.
 439:Generated_Source\PSoC4/Jetty_I2C_MASTER.c **** *
 440:Generated_Source\PSoC4/Jetty_I2C_MASTER.c **** * \globalvars
 441:Generated_Source\PSoC4/Jetty_I2C_MASTER.c **** * Jetty_state - used to store current state of software FSM.
 442:Generated_Source\PSoC4/Jetty_I2C_MASTER.c **** *
 443:Generated_Source\PSoC4/Jetty_I2C_MASTER.c **** *******************************************************************************/
 444:Generated_Source\PSoC4/Jetty_I2C_MASTER.c **** uint32 Jetty_I2CMasterSendRestart(uint32 slaveAddress, uint32 bitRnW, uint32 timeoutMs)
 445:Generated_Source\PSoC4/Jetty_I2C_MASTER.c **** {
 446:Generated_Source\PSoC4/Jetty_I2C_MASTER.c ****     uint32 errStatus = Jetty_I2C_MSTR_NOT_READY;
 447:Generated_Source\PSoC4/Jetty_I2C_MASTER.c **** 
 448:Generated_Source\PSoC4/Jetty_I2C_MASTER.c ****     /* Check FSM state before generating ReStart condition */
 449:Generated_Source\PSoC4/Jetty_I2C_MASTER.c ****     if(Jetty_CHECK_I2C_MASTER_ACTIVE)
 450:Generated_Source\PSoC4/Jetty_I2C_MASTER.c ****     {
 451:Generated_Source\PSoC4/Jetty_I2C_MASTER.c ****         uint32 locStatus;
 452:Generated_Source\PSoC4/Jetty_I2C_MASTER.c ****         uint32 timeout = Jetty_I2C_CONVERT_TIMEOUT_TO_US(timeoutMs);
 453:Generated_Source\PSoC4/Jetty_I2C_MASTER.c **** 
 454:Generated_Source\PSoC4/Jetty_I2C_MASTER.c ****         slaveAddress = Jetty_GET_I2C_8BIT_ADDRESS(slaveAddress);
 455:Generated_Source\PSoC4/Jetty_I2C_MASTER.c **** 
 456:Generated_Source\PSoC4/Jetty_I2C_MASTER.c ****         if(0u == bitRnW) /* Write direction */
 457:Generated_Source\PSoC4/Jetty_I2C_MASTER.c ****         {
 458:Generated_Source\PSoC4/Jetty_I2C_MASTER.c ****             Jetty_state = Jetty_I2C_FSM_MSTR_WR_DATA;
 459:Generated_Source\PSoC4/Jetty_I2C_MASTER.c ****         }
 460:Generated_Source\PSoC4/Jetty_I2C_MASTER.c ****         else             /* Read direction */
 461:Generated_Source\PSoC4/Jetty_I2C_MASTER.c ****         {
 462:Generated_Source\PSoC4/Jetty_I2C_MASTER.c ****             Jetty_state  = Jetty_I2C_FSM_MSTR_RD_DATA;
 463:Generated_Source\PSoC4/Jetty_I2C_MASTER.c ****                       slaveAddress |= Jetty_I2C_READ_FLAG;
 464:Generated_Source\PSoC4/Jetty_I2C_MASTER.c ****         }
 465:Generated_Source\PSoC4/Jetty_I2C_MASTER.c **** 
 466:Generated_Source\PSoC4/Jetty_I2C_MASTER.c ****         /* TX and RX FIFO have to be empty at here */
 467:Generated_Source\PSoC4/Jetty_I2C_MASTER.c **** 
 468:Generated_Source\PSoC4/Jetty_I2C_MASTER.c ****         /* A proper ReStart sequence is: set command to generate ReStart, then put an address byte 
 469:Generated_Source\PSoC4/Jetty_I2C_MASTER.c ****         * Put address into the TX FIFO the 1st makes scb IP think that this data byte for current w
 470:Generated_Source\PSoC4/Jetty_I2C_MASTER.c ****         */
 471:Generated_Source\PSoC4/Jetty_I2C_MASTER.c ****         Jetty_I2C_MASTER_GENERATE_RESTART;
 472:Generated_Source\PSoC4/Jetty_I2C_MASTER.c ****         Jetty_TX_FIFO_WR_REG = slaveAddress;
 473:Generated_Source\PSoC4/Jetty_I2C_MASTER.c **** 
 474:Generated_Source\PSoC4/Jetty_I2C_MASTER.c ****         /* Wait until address has been transferred. Note that for master reads at least one byte. *
 475:Generated_Source\PSoC4/Jetty_I2C_MASTER.c ****         do
 476:Generated_Source\PSoC4/Jetty_I2C_MASTER.c ****         {
 477:Generated_Source\PSoC4/Jetty_I2C_MASTER.c ****             locStatus  = Jetty_GetMasterInterruptSource() & Jetty_INTR_MASTER_SEND_BYTE;
 478:Generated_Source\PSoC4/Jetty_I2C_MASTER.c ****             locStatus |= Jetty_I2CMasterWaitOneUnit(&timeout);
 479:Generated_Source\PSoC4/Jetty_I2C_MASTER.c ****         }
 480:Generated_Source\PSoC4/Jetty_I2C_MASTER.c ****         while (0u == locStatus);
 481:Generated_Source\PSoC4/Jetty_I2C_MASTER.c **** 
 482:Generated_Source\PSoC4/Jetty_I2C_MASTER.c **** 
 483:Generated_Source\PSoC4/Jetty_I2C_MASTER.c ****         /* Handle completion event and convert to status */
 484:Generated_Source\PSoC4/Jetty_I2C_MASTER.c ****         errStatus = Jetty_I2CMasterHandleStatus(locStatus);
 485:Generated_Source\PSoC4/Jetty_I2C_MASTER.c ****     }
 486:Generated_Source\PSoC4/Jetty_I2C_MASTER.c **** 
 487:Generated_Source\PSoC4/Jetty_I2C_MASTER.c ****     return(errStatus);
ARM GAS  C:\Users\tsien\AppData\Local\Temp\ccVzEi8h.s 			page 10


 488:Generated_Source\PSoC4/Jetty_I2C_MASTER.c **** }
 489:Generated_Source\PSoC4/Jetty_I2C_MASTER.c **** 
 490:Generated_Source\PSoC4/Jetty_I2C_MASTER.c **** 
 491:Generated_Source\PSoC4/Jetty_I2C_MASTER.c **** /*******************************************************************************
 492:Generated_Source\PSoC4/Jetty_I2C_MASTER.c **** * Function Name: Jetty_I2CMasterSendStop
 493:Generated_Source\PSoC4/Jetty_I2C_MASTER.c **** ****************************************************************************//**
 494:Generated_Source\PSoC4/Jetty_I2C_MASTER.c **** *
 495:Generated_Source\PSoC4/Jetty_I2C_MASTER.c **** * Generates Stop condition on the bus.
 496:Generated_Source\PSoC4/Jetty_I2C_MASTER.c **** * The NAK is generated before Stop in case of a read transaction.
 497:Generated_Source\PSoC4/Jetty_I2C_MASTER.c **** * At least one byte has to be read if a Start or ReStart condition with read
 498:Generated_Source\PSoC4/Jetty_I2C_MASTER.c **** * direction was generated before.
 499:Generated_Source\PSoC4/Jetty_I2C_MASTER.c **** * This function is blocking and does not return until a Stop condition is
 500:Generated_Source\PSoC4/Jetty_I2C_MASTER.c **** * generated or error occurred.
 501:Generated_Source\PSoC4/Jetty_I2C_MASTER.c **** *
 502:Generated_Source\PSoC4/Jetty_I2C_MASTER.c **** * \param timeoutMs
 503:Generated_Source\PSoC4/Jetty_I2C_MASTER.c **** * Defines in milliseconds the time that this function can block for.
 504:Generated_Source\PSoC4/Jetty_I2C_MASTER.c **** * If that time expires, the function returns. If a zero is passed,
 505:Generated_Source\PSoC4/Jetty_I2C_MASTER.c **** * the function waits forever for the action to complete. If a timeout occurs,
 506:Generated_Source\PSoC4/Jetty_I2C_MASTER.c **** * the SCB block is reset. Note The maximum value is (maximum uint32)/1000.
 507:Generated_Source\PSoC4/Jetty_I2C_MASTER.c **** *
 508:Generated_Source\PSoC4/Jetty_I2C_MASTER.c **** * \return
 509:Generated_Source\PSoC4/Jetty_I2C_MASTER.c **** * Error status.
 510:Generated_Source\PSoC4/Jetty_I2C_MASTER.c **** * See Jetty_I2CMasterSendStart() function for constants.
 511:Generated_Source\PSoC4/Jetty_I2C_MASTER.c **** *
 512:Generated_Source\PSoC4/Jetty_I2C_MASTER.c **** * \sideeffect
 513:Generated_Source\PSoC4/Jetty_I2C_MASTER.c **** * A valid Start or ReStart condition must be generated before calling
 514:Generated_Source\PSoC4/Jetty_I2C_MASTER.c **** * this function. This function does nothing if Start or ReStart conditions
 515:Generated_Source\PSoC4/Jetty_I2C_MASTER.c **** * failed before this function was called.
 516:Generated_Source\PSoC4/Jetty_I2C_MASTER.c **** * For read transaction, at least one byte has to be read before ReStart
 517:Generated_Source\PSoC4/Jetty_I2C_MASTER.c **** * generation.
 518:Generated_Source\PSoC4/Jetty_I2C_MASTER.c **** *
 519:Generated_Source\PSoC4/Jetty_I2C_MASTER.c **** * \globalvars
 520:Generated_Source\PSoC4/Jetty_I2C_MASTER.c **** * Jetty_state - used to store current state of software FSM.
 521:Generated_Source\PSoC4/Jetty_I2C_MASTER.c **** *
 522:Generated_Source\PSoC4/Jetty_I2C_MASTER.c **** *******************************************************************************/
 523:Generated_Source\PSoC4/Jetty_I2C_MASTER.c **** uint32 Jetty_I2CMasterSendStop(uint32 timeoutMs)
 524:Generated_Source\PSoC4/Jetty_I2C_MASTER.c **** {
 525:Generated_Source\PSoC4/Jetty_I2C_MASTER.c ****     uint32 errStatus = Jetty_I2C_MSTR_NOT_READY;
 526:Generated_Source\PSoC4/Jetty_I2C_MASTER.c **** 
 527:Generated_Source\PSoC4/Jetty_I2C_MASTER.c ****     /* Check FSM state before generating Stop condition */
 528:Generated_Source\PSoC4/Jetty_I2C_MASTER.c ****     if(Jetty_CHECK_I2C_MASTER_ACTIVE)
 529:Generated_Source\PSoC4/Jetty_I2C_MASTER.c ****     {
 530:Generated_Source\PSoC4/Jetty_I2C_MASTER.c ****         uint32 locStatus;
 531:Generated_Source\PSoC4/Jetty_I2C_MASTER.c ****         uint32 timeout = Jetty_I2C_CONVERT_TIMEOUT_TO_US(timeoutMs);
 532:Generated_Source\PSoC4/Jetty_I2C_MASTER.c **** 
 533:Generated_Source\PSoC4/Jetty_I2C_MASTER.c ****         /* Write direction: generates Stop; Read  direction: generates NACK and Stop; */
 534:Generated_Source\PSoC4/Jetty_I2C_MASTER.c ****         Jetty_I2C_MASTER_GENERATE_STOP;
 535:Generated_Source\PSoC4/Jetty_I2C_MASTER.c **** 
 536:Generated_Source\PSoC4/Jetty_I2C_MASTER.c ****         /* Wait for a completion event from the master */
 537:Generated_Source\PSoC4/Jetty_I2C_MASTER.c ****         do
 538:Generated_Source\PSoC4/Jetty_I2C_MASTER.c ****         {
 539:Generated_Source\PSoC4/Jetty_I2C_MASTER.c ****             locStatus  = Jetty_GetMasterInterruptSource() & Jetty_INTR_MASTER_SEND_STOP;
 540:Generated_Source\PSoC4/Jetty_I2C_MASTER.c ****             locStatus |= Jetty_I2CMasterWaitOneUnit(&timeout);
 541:Generated_Source\PSoC4/Jetty_I2C_MASTER.c ****         }
 542:Generated_Source\PSoC4/Jetty_I2C_MASTER.c ****         while (0u == locStatus);
 543:Generated_Source\PSoC4/Jetty_I2C_MASTER.c **** 
 544:Generated_Source\PSoC4/Jetty_I2C_MASTER.c ****         /* Handle completion event and convert to status */
ARM GAS  C:\Users\tsien\AppData\Local\Temp\ccVzEi8h.s 			page 11


 545:Generated_Source\PSoC4/Jetty_I2C_MASTER.c ****         errStatus = Jetty_I2CMasterHandleStatus(locStatus);
 546:Generated_Source\PSoC4/Jetty_I2C_MASTER.c ****     }
 547:Generated_Source\PSoC4/Jetty_I2C_MASTER.c **** 
 548:Generated_Source\PSoC4/Jetty_I2C_MASTER.c ****     return(errStatus);
 549:Generated_Source\PSoC4/Jetty_I2C_MASTER.c **** }
 550:Generated_Source\PSoC4/Jetty_I2C_MASTER.c **** 
 551:Generated_Source\PSoC4/Jetty_I2C_MASTER.c **** 
 552:Generated_Source\PSoC4/Jetty_I2C_MASTER.c **** /*******************************************************************************
 553:Generated_Source\PSoC4/Jetty_I2C_MASTER.c **** * Function Name: Jetty_I2CMasterWriteByte
 554:Generated_Source\PSoC4/Jetty_I2C_MASTER.c **** ****************************************************************************//**
 555:Generated_Source\PSoC4/Jetty_I2C_MASTER.c **** *
 556:Generated_Source\PSoC4/Jetty_I2C_MASTER.c **** * Sends one byte to a slave.
 557:Generated_Source\PSoC4/Jetty_I2C_MASTER.c **** * This function is blocking and does not return until byte is transmitted
 558:Generated_Source\PSoC4/Jetty_I2C_MASTER.c **** * or error occurred.
 559:Generated_Source\PSoC4/Jetty_I2C_MASTER.c **** *
 560:Generated_Source\PSoC4/Jetty_I2C_MASTER.c **** * \param wrByte
 561:Generated_Source\PSoC4/Jetty_I2C_MASTER.c **** * The data byte to send to the slave.
 562:Generated_Source\PSoC4/Jetty_I2C_MASTER.c **** *
 563:Generated_Source\PSoC4/Jetty_I2C_MASTER.c **** * \param timeoutMs
 564:Generated_Source\PSoC4/Jetty_I2C_MASTER.c **** * Defines in milliseconds the time that this function can block for.
 565:Generated_Source\PSoC4/Jetty_I2C_MASTER.c **** * If that time expires, the function returns. If a zero is passed,
 566:Generated_Source\PSoC4/Jetty_I2C_MASTER.c **** * the function waits forever for the action to complete. If a timeout occurs,
 567:Generated_Source\PSoC4/Jetty_I2C_MASTER.c **** * the SCB block is reset. Note The maximum value is (maximum uint32)/1000.
 568:Generated_Source\PSoC4/Jetty_I2C_MASTER.c **** *
 569:Generated_Source\PSoC4/Jetty_I2C_MASTER.c **** * \return
 570:Generated_Source\PSoC4/Jetty_I2C_MASTER.c **** * Error status.
 571:Generated_Source\PSoC4/Jetty_I2C_MASTER.c **** * See Jetty_I2CMasterSendStart() function for constants.
 572:Generated_Source\PSoC4/Jetty_I2C_MASTER.c **** *
 573:Generated_Source\PSoC4/Jetty_I2C_MASTER.c **** * \sideeffect
 574:Generated_Source\PSoC4/Jetty_I2C_MASTER.c **** * A valid Start or ReStart condition must be generated before calling
 575:Generated_Source\PSoC4/Jetty_I2C_MASTER.c **** * this function. This function does nothing if Start or ReStart condition
 576:Generated_Source\PSoC4/Jetty_I2C_MASTER.c **** * failed before this function was called.
 577:Generated_Source\PSoC4/Jetty_I2C_MASTER.c **** *
 578:Generated_Source\PSoC4/Jetty_I2C_MASTER.c **** * \globalvars
 579:Generated_Source\PSoC4/Jetty_I2C_MASTER.c **** * Jetty_state - used to store current state of software FSM.
 580:Generated_Source\PSoC4/Jetty_I2C_MASTER.c **** *
 581:Generated_Source\PSoC4/Jetty_I2C_MASTER.c **** *******************************************************************************/
 582:Generated_Source\PSoC4/Jetty_I2C_MASTER.c **** uint32 Jetty_I2CMasterWriteByte(uint32 wrByte, uint32 timeoutMs)
 583:Generated_Source\PSoC4/Jetty_I2C_MASTER.c **** {
 584:Generated_Source\PSoC4/Jetty_I2C_MASTER.c ****     uint32 errStatus = Jetty_I2C_MSTR_NOT_READY;
 585:Generated_Source\PSoC4/Jetty_I2C_MASTER.c **** 
 586:Generated_Source\PSoC4/Jetty_I2C_MASTER.c ****     /* Check FSM state before write byte */
 587:Generated_Source\PSoC4/Jetty_I2C_MASTER.c ****     if(Jetty_CHECK_I2C_MASTER_ACTIVE)
 588:Generated_Source\PSoC4/Jetty_I2C_MASTER.c ****     {
 589:Generated_Source\PSoC4/Jetty_I2C_MASTER.c ****         uint32 locStatus;
 590:Generated_Source\PSoC4/Jetty_I2C_MASTER.c ****         uint32 timeout = Jetty_I2C_CONVERT_TIMEOUT_TO_US(timeoutMs);
 591:Generated_Source\PSoC4/Jetty_I2C_MASTER.c **** 
 592:Generated_Source\PSoC4/Jetty_I2C_MASTER.c ****         Jetty_TX_FIFO_WR_REG = wrByte;
 593:Generated_Source\PSoC4/Jetty_I2C_MASTER.c **** 
 594:Generated_Source\PSoC4/Jetty_I2C_MASTER.c ****         /* Wait for a completion event from the master */
 595:Generated_Source\PSoC4/Jetty_I2C_MASTER.c ****         do
 596:Generated_Source\PSoC4/Jetty_I2C_MASTER.c ****         {
 597:Generated_Source\PSoC4/Jetty_I2C_MASTER.c ****             locStatus  = Jetty_GetMasterInterruptSource() & Jetty_INTR_MASTER_SEND_BYTE;
 598:Generated_Source\PSoC4/Jetty_I2C_MASTER.c ****             locStatus |= Jetty_I2CMasterWaitOneUnit(&timeout);
 599:Generated_Source\PSoC4/Jetty_I2C_MASTER.c ****         }
 600:Generated_Source\PSoC4/Jetty_I2C_MASTER.c ****         while (0u == locStatus);
 601:Generated_Source\PSoC4/Jetty_I2C_MASTER.c **** 
ARM GAS  C:\Users\tsien\AppData\Local\Temp\ccVzEi8h.s 			page 12


 602:Generated_Source\PSoC4/Jetty_I2C_MASTER.c ****         /* Handle completion event and convert to status */
 603:Generated_Source\PSoC4/Jetty_I2C_MASTER.c ****         errStatus = Jetty_I2CMasterHandleStatus(locStatus);
 604:Generated_Source\PSoC4/Jetty_I2C_MASTER.c ****     }
 605:Generated_Source\PSoC4/Jetty_I2C_MASTER.c **** 
 606:Generated_Source\PSoC4/Jetty_I2C_MASTER.c ****     return(errStatus);
 607:Generated_Source\PSoC4/Jetty_I2C_MASTER.c **** }
 608:Generated_Source\PSoC4/Jetty_I2C_MASTER.c **** 
 609:Generated_Source\PSoC4/Jetty_I2C_MASTER.c **** 
 610:Generated_Source\PSoC4/Jetty_I2C_MASTER.c **** 
 611:Generated_Source\PSoC4/Jetty_I2C_MASTER.c **** /*******************************************************************************
 612:Generated_Source\PSoC4/Jetty_I2C_MASTER.c **** * Function Name: Jetty_I2CMasterReadByte
 613:Generated_Source\PSoC4/Jetty_I2C_MASTER.c **** ****************************************************************************//**
 614:Generated_Source\PSoC4/Jetty_I2C_MASTER.c **** *
 615:Generated_Source\PSoC4/Jetty_I2C_MASTER.c **** * Reads one byte from a slave and generates ACK or prepares to generate NAK.
 616:Generated_Source\PSoC4/Jetty_I2C_MASTER.c **** * The NAK will be generated before Stop or ReStart condition by
 617:Generated_Source\PSoC4/Jetty_I2C_MASTER.c **** * Jetty_I2CMasterSendStop() or
 618:Generated_Source\PSoC4/Jetty_I2C_MASTER.c **** * Jetty_I2CMasterSendRestart() function appropriately.
 619:Generated_Source\PSoC4/Jetty_I2C_MASTER.c **** * This function is blocking. It does not return until a byte is received or
 620:Generated_Source\PSoC4/Jetty_I2C_MASTER.c **** * an error occurs.
 621:Generated_Source\PSoC4/Jetty_I2C_MASTER.c **** *
 622:Generated_Source\PSoC4/Jetty_I2C_MASTER.c **** * \param ackNack
 623:Generated_Source\PSoC4/Jetty_I2C_MASTER.c **** * Response to received byte.
 624:Generated_Source\PSoC4/Jetty_I2C_MASTER.c **** *  - Jetty_I2C_ACK_DATA - Generates ACK.
 625:Generated_Source\PSoC4/Jetty_I2C_MASTER.c **** *     The master notifies slave that transfer continues.
 626:Generated_Source\PSoC4/Jetty_I2C_MASTER.c **** *  - Jetty_I2C_NAK_DATA - Prepares to generate NAK.
 627:Generated_Source\PSoC4/Jetty_I2C_MASTER.c **** *     The master will notify slave that transfer is completed.
 628:Generated_Source\PSoC4/Jetty_I2C_MASTER.c **** *
 629:Generated_Source\PSoC4/Jetty_I2C_MASTER.c **** * \param rdByte
 630:Generated_Source\PSoC4/Jetty_I2C_MASTER.c **** * The pointer to the location to store the data byte that was read from
 631:Generated_Source\PSoC4/Jetty_I2C_MASTER.c **** * the slave.
 632:Generated_Source\PSoC4/Jetty_I2C_MASTER.c **** * Note that the byte should be ignored if error status is returned.
 633:Generated_Source\PSoC4/Jetty_I2C_MASTER.c **** *
 634:Generated_Source\PSoC4/Jetty_I2C_MASTER.c **** * \param timeoutMs
 635:Generated_Source\PSoC4/Jetty_I2C_MASTER.c **** * Defines in milliseconds the time that this function can block for.
 636:Generated_Source\PSoC4/Jetty_I2C_MASTER.c **** * If that time expires, the function returns. If a zero is passed,
 637:Generated_Source\PSoC4/Jetty_I2C_MASTER.c **** * the function waits forever for the action to complete. If a timeout occurs,
 638:Generated_Source\PSoC4/Jetty_I2C_MASTER.c **** * the SCB block is reset. Note The maximum value is (maximum uint32)/1000.
 639:Generated_Source\PSoC4/Jetty_I2C_MASTER.c **** *
 640:Generated_Source\PSoC4/Jetty_I2C_MASTER.c **** * \return
 641:Generated_Source\PSoC4/Jetty_I2C_MASTER.c **** * Error status.
 642:Generated_Source\PSoC4/Jetty_I2C_MASTER.c **** * See Jetty_I2CMasterSendStart() function for constants.
 643:Generated_Source\PSoC4/Jetty_I2C_MASTER.c **** *
 644:Generated_Source\PSoC4/Jetty_I2C_MASTER.c **** * \sideeffect
 645:Generated_Source\PSoC4/Jetty_I2C_MASTER.c **** * A valid Start or ReStart condition must be generated before calling
 646:Generated_Source\PSoC4/Jetty_I2C_MASTER.c **** * this function. This function does nothing if Start or ReStart condition
 647:Generated_Source\PSoC4/Jetty_I2C_MASTER.c **** * failed before this function was called.
 648:Generated_Source\PSoC4/Jetty_I2C_MASTER.c **** *
 649:Generated_Source\PSoC4/Jetty_I2C_MASTER.c **** * \globalvars
 650:Generated_Source\PSoC4/Jetty_I2C_MASTER.c **** * Jetty_state - used to store current state of software FSM.
 651:Generated_Source\PSoC4/Jetty_I2C_MASTER.c **** *
 652:Generated_Source\PSoC4/Jetty_I2C_MASTER.c **** *******************************************************************************/
 653:Generated_Source\PSoC4/Jetty_I2C_MASTER.c **** uint32 Jetty_I2CMasterReadByte(uint32 ackNack, uint8 *rdByte, uint32 timeoutMs)
 654:Generated_Source\PSoC4/Jetty_I2C_MASTER.c **** {
 655:Generated_Source\PSoC4/Jetty_I2C_MASTER.c ****     uint32 errStatus = Jetty_I2C_MSTR_NOT_READY;
 656:Generated_Source\PSoC4/Jetty_I2C_MASTER.c **** 
 657:Generated_Source\PSoC4/Jetty_I2C_MASTER.c ****     /* Check FSM state before read byte */
 658:Generated_Source\PSoC4/Jetty_I2C_MASTER.c ****     if(Jetty_CHECK_I2C_MASTER_ACTIVE)
ARM GAS  C:\Users\tsien\AppData\Local\Temp\ccVzEi8h.s 			page 13


 659:Generated_Source\PSoC4/Jetty_I2C_MASTER.c ****     {
 660:Generated_Source\PSoC4/Jetty_I2C_MASTER.c ****         uint32 locStatus;
 661:Generated_Source\PSoC4/Jetty_I2C_MASTER.c ****         uint32 rxNotEmpty;
 662:Generated_Source\PSoC4/Jetty_I2C_MASTER.c ****         uint32 timeout = Jetty_I2C_CONVERT_TIMEOUT_TO_US(timeoutMs);
 663:Generated_Source\PSoC4/Jetty_I2C_MASTER.c **** 
 664:Generated_Source\PSoC4/Jetty_I2C_MASTER.c ****         /* Wait for a completion event from the master */
 665:Generated_Source\PSoC4/Jetty_I2C_MASTER.c ****         do
 666:Generated_Source\PSoC4/Jetty_I2C_MASTER.c ****         {
 667:Generated_Source\PSoC4/Jetty_I2C_MASTER.c ****             locStatus  = Jetty_GetMasterInterruptSource() & Jetty_INTR_MASTER_RECEIVE_BYTE;
 668:Generated_Source\PSoC4/Jetty_I2C_MASTER.c ****             rxNotEmpty = Jetty_GetRxInterruptSource() & Jetty_INTR_RX_NOT_EMPTY;
 669:Generated_Source\PSoC4/Jetty_I2C_MASTER.c ****             locStatus |= Jetty_I2CMasterWaitOneUnit(&timeout);
 670:Generated_Source\PSoC4/Jetty_I2C_MASTER.c ****         }
 671:Generated_Source\PSoC4/Jetty_I2C_MASTER.c ****         while ((0u == locStatus) && (0u == rxNotEmpty));
 672:Generated_Source\PSoC4/Jetty_I2C_MASTER.c **** 
 673:Generated_Source\PSoC4/Jetty_I2C_MASTER.c ****         /* Get byte from RX FIFO */
 674:Generated_Source\PSoC4/Jetty_I2C_MASTER.c ****         if (0u != rxNotEmpty)
 675:Generated_Source\PSoC4/Jetty_I2C_MASTER.c ****         {
 676:Generated_Source\PSoC4/Jetty_I2C_MASTER.c ****             *rdByte = (uint8)Jetty_RX_FIFO_RD_REG;
 677:Generated_Source\PSoC4/Jetty_I2C_MASTER.c ****             Jetty_ClearRxInterruptSource(Jetty_INTR_RX_ALL);
 678:Generated_Source\PSoC4/Jetty_I2C_MASTER.c ****         }
 679:Generated_Source\PSoC4/Jetty_I2C_MASTER.c **** 
 680:Generated_Source\PSoC4/Jetty_I2C_MASTER.c ****         /* Handle completion event and convert to status */
 681:Generated_Source\PSoC4/Jetty_I2C_MASTER.c ****         errStatus = Jetty_I2CMasterHandleStatus(locStatus);
 682:Generated_Source\PSoC4/Jetty_I2C_MASTER.c **** 
 683:Generated_Source\PSoC4/Jetty_I2C_MASTER.c ****         if (Jetty_I2C_MSTR_NO_ERROR == errStatus)
 684:Generated_Source\PSoC4/Jetty_I2C_MASTER.c ****         {
 685:Generated_Source\PSoC4/Jetty_I2C_MASTER.c ****             if(Jetty_I2C_ACK_DATA == ackNack)
 686:Generated_Source\PSoC4/Jetty_I2C_MASTER.c ****             {
 687:Generated_Source\PSoC4/Jetty_I2C_MASTER.c ****                 Jetty_I2C_MASTER_GENERATE_ACK;
 688:Generated_Source\PSoC4/Jetty_I2C_MASTER.c ****             }
 689:Generated_Source\PSoC4/Jetty_I2C_MASTER.c ****             else
 690:Generated_Source\PSoC4/Jetty_I2C_MASTER.c ****             {
 691:Generated_Source\PSoC4/Jetty_I2C_MASTER.c ****                 /* NACK is generated by Stop or ReStart command */
 692:Generated_Source\PSoC4/Jetty_I2C_MASTER.c ****             }
 693:Generated_Source\PSoC4/Jetty_I2C_MASTER.c ****         }
 694:Generated_Source\PSoC4/Jetty_I2C_MASTER.c ****     }
 695:Generated_Source\PSoC4/Jetty_I2C_MASTER.c **** 
 696:Generated_Source\PSoC4/Jetty_I2C_MASTER.c ****     return(errStatus);
 697:Generated_Source\PSoC4/Jetty_I2C_MASTER.c **** }
 698:Generated_Source\PSoC4/Jetty_I2C_MASTER.c **** 
 699:Generated_Source\PSoC4/Jetty_I2C_MASTER.c **** 
 700:Generated_Source\PSoC4/Jetty_I2C_MASTER.c **** /*******************************************************************************
 701:Generated_Source\PSoC4/Jetty_I2C_MASTER.c **** * Function Name: Jetty_I2CMasterGetReadBufSize
 702:Generated_Source\PSoC4/Jetty_I2C_MASTER.c **** ****************************************************************************//**
 703:Generated_Source\PSoC4/Jetty_I2C_MASTER.c **** *
 704:Generated_Source\PSoC4/Jetty_I2C_MASTER.c **** *  Returns the number of bytes that has been transferred with an
 705:Generated_Source\PSoC4/Jetty_I2C_MASTER.c **** *  Jetty_I2CMasterReadBuf() function.
 706:Generated_Source\PSoC4/Jetty_I2C_MASTER.c **** *
 707:Generated_Source\PSoC4/Jetty_I2C_MASTER.c **** * \return
 708:Generated_Source\PSoC4/Jetty_I2C_MASTER.c **** *  Byte count of transfer. If the transfer is not yet complete, it returns
 709:Generated_Source\PSoC4/Jetty_I2C_MASTER.c **** *  the byte count transferred so far.
 710:Generated_Source\PSoC4/Jetty_I2C_MASTER.c **** *
 711:Generated_Source\PSoC4/Jetty_I2C_MASTER.c **** * \sideeffect
 712:Generated_Source\PSoC4/Jetty_I2C_MASTER.c **** *  This function returns not valid value if
 713:Generated_Source\PSoC4/Jetty_I2C_MASTER.c **** *  Jetty_I2C_MSTAT_ERR_ARB_LOST or
 714:Generated_Source\PSoC4/Jetty_I2C_MASTER.c **** *  Jetty_I2C_MSTAT_ERR_BUS_ERROR occurred while read transfer.
 715:Generated_Source\PSoC4/Jetty_I2C_MASTER.c **** *
ARM GAS  C:\Users\tsien\AppData\Local\Temp\ccVzEi8h.s 			page 14


 716:Generated_Source\PSoC4/Jetty_I2C_MASTER.c **** * \globalvars
 717:Generated_Source\PSoC4/Jetty_I2C_MASTER.c **** *  Jetty_mstrRdBufIndex - used to current index within master read
 718:Generated_Source\PSoC4/Jetty_I2C_MASTER.c **** *  buffer.
 719:Generated_Source\PSoC4/Jetty_I2C_MASTER.c **** *
 720:Generated_Source\PSoC4/Jetty_I2C_MASTER.c **** *******************************************************************************/
 721:Generated_Source\PSoC4/Jetty_I2C_MASTER.c **** uint32 Jetty_I2CMasterGetReadBufSize(void)
 722:Generated_Source\PSoC4/Jetty_I2C_MASTER.c **** {
 723:Generated_Source\PSoC4/Jetty_I2C_MASTER.c ****     return(Jetty_mstrRdBufIndex);
 724:Generated_Source\PSoC4/Jetty_I2C_MASTER.c **** }
 725:Generated_Source\PSoC4/Jetty_I2C_MASTER.c **** 
 726:Generated_Source\PSoC4/Jetty_I2C_MASTER.c **** 
 727:Generated_Source\PSoC4/Jetty_I2C_MASTER.c **** /*******************************************************************************
 728:Generated_Source\PSoC4/Jetty_I2C_MASTER.c **** * Function Name: Jetty_I2CMasterGetWriteBufSize
 729:Generated_Source\PSoC4/Jetty_I2C_MASTER.c **** ****************************************************************************//**
 730:Generated_Source\PSoC4/Jetty_I2C_MASTER.c **** *
 731:Generated_Source\PSoC4/Jetty_I2C_MASTER.c **** *  Returns the number of bytes that have been transferred with an
 732:Generated_Source\PSoC4/Jetty_I2C_MASTER.c **** *  SCB_I2CMasterWriteBuf() function.
 733:Generated_Source\PSoC4/Jetty_I2C_MASTER.c **** *
 734:Generated_Source\PSoC4/Jetty_I2C_MASTER.c **** * \return
 735:Generated_Source\PSoC4/Jetty_I2C_MASTER.c **** *   Byte count of transfer. If the transfer is not yet complete, it returns
 736:Generated_Source\PSoC4/Jetty_I2C_MASTER.c **** *   zero unit transfer completion.
 737:Generated_Source\PSoC4/Jetty_I2C_MASTER.c **** *
 738:Generated_Source\PSoC4/Jetty_I2C_MASTER.c **** * \sideeffect
 739:Generated_Source\PSoC4/Jetty_I2C_MASTER.c **** *   This function returns not valid value if
 740:Generated_Source\PSoC4/Jetty_I2C_MASTER.c **** *   Jetty_I2C_MSTAT_ERR_ARB_LOST or
 741:Generated_Source\PSoC4/Jetty_I2C_MASTER.c **** *   Jetty_I2C_MSTAT_ERR_BUS_ERROR occurred while read transfer.
 742:Generated_Source\PSoC4/Jetty_I2C_MASTER.c **** *
 743:Generated_Source\PSoC4/Jetty_I2C_MASTER.c **** * \globalvars
 744:Generated_Source\PSoC4/Jetty_I2C_MASTER.c **** *  Jetty_mstrWrBufIndex - used to current index within master write
 745:Generated_Source\PSoC4/Jetty_I2C_MASTER.c **** *  buffer.
 746:Generated_Source\PSoC4/Jetty_I2C_MASTER.c **** *
 747:Generated_Source\PSoC4/Jetty_I2C_MASTER.c **** *******************************************************************************/
 748:Generated_Source\PSoC4/Jetty_I2C_MASTER.c **** uint32 Jetty_I2CMasterGetWriteBufSize(void)
 749:Generated_Source\PSoC4/Jetty_I2C_MASTER.c **** {
 750:Generated_Source\PSoC4/Jetty_I2C_MASTER.c ****     return(Jetty_mstrWrBufIndex);
 751:Generated_Source\PSoC4/Jetty_I2C_MASTER.c **** }
 752:Generated_Source\PSoC4/Jetty_I2C_MASTER.c **** 
 753:Generated_Source\PSoC4/Jetty_I2C_MASTER.c **** 
 754:Generated_Source\PSoC4/Jetty_I2C_MASTER.c **** /*******************************************************************************
 755:Generated_Source\PSoC4/Jetty_I2C_MASTER.c **** * Function Name: Jetty_I2CMasterClearReadBuf
 756:Generated_Source\PSoC4/Jetty_I2C_MASTER.c **** ****************************************************************************//**
 757:Generated_Source\PSoC4/Jetty_I2C_MASTER.c **** *
 758:Generated_Source\PSoC4/Jetty_I2C_MASTER.c **** *  Resets the read buffer pointer back to the first byte in the buffer.
 759:Generated_Source\PSoC4/Jetty_I2C_MASTER.c **** *
 760:Generated_Source\PSoC4/Jetty_I2C_MASTER.c **** * \globalvars
 761:Generated_Source\PSoC4/Jetty_I2C_MASTER.c **** *  Jetty_mstrRdBufIndex - used to current index within master read
 762:Generated_Source\PSoC4/Jetty_I2C_MASTER.c **** *   buffer.
 763:Generated_Source\PSoC4/Jetty_I2C_MASTER.c **** *  Jetty_mstrStatus - used to store current status of I2C Master.
 764:Generated_Source\PSoC4/Jetty_I2C_MASTER.c **** *
 765:Generated_Source\PSoC4/Jetty_I2C_MASTER.c **** *******************************************************************************/
 766:Generated_Source\PSoC4/Jetty_I2C_MASTER.c **** void Jetty_I2CMasterClearReadBuf(void)
 767:Generated_Source\PSoC4/Jetty_I2C_MASTER.c **** {
 768:Generated_Source\PSoC4/Jetty_I2C_MASTER.c ****     Jetty_DisableInt();  /* Lock from interruption */
 769:Generated_Source\PSoC4/Jetty_I2C_MASTER.c **** 
 770:Generated_Source\PSoC4/Jetty_I2C_MASTER.c ****     Jetty_mstrRdBufIndex = 0u;
 771:Generated_Source\PSoC4/Jetty_I2C_MASTER.c ****     Jetty_mstrStatus    &= (uint16) ~Jetty_I2C_MSTAT_RD_CMPLT;
 772:Generated_Source\PSoC4/Jetty_I2C_MASTER.c **** 
ARM GAS  C:\Users\tsien\AppData\Local\Temp\ccVzEi8h.s 			page 15


 773:Generated_Source\PSoC4/Jetty_I2C_MASTER.c ****     Jetty_EnableInt();   /* Release lock */
 774:Generated_Source\PSoC4/Jetty_I2C_MASTER.c **** }
 775:Generated_Source\PSoC4/Jetty_I2C_MASTER.c **** 
 776:Generated_Source\PSoC4/Jetty_I2C_MASTER.c **** 
 777:Generated_Source\PSoC4/Jetty_I2C_MASTER.c **** /*******************************************************************************
 778:Generated_Source\PSoC4/Jetty_I2C_MASTER.c **** * Function Name: Jetty_I2CMasterClearWriteBuf
 779:Generated_Source\PSoC4/Jetty_I2C_MASTER.c **** ****************************************************************************//**
 780:Generated_Source\PSoC4/Jetty_I2C_MASTER.c **** *
 781:Generated_Source\PSoC4/Jetty_I2C_MASTER.c **** *  Resets the write buffer pointer back to the first byte in the buffer.
 782:Generated_Source\PSoC4/Jetty_I2C_MASTER.c **** *
 783:Generated_Source\PSoC4/Jetty_I2C_MASTER.c **** * \globalvars
 784:Generated_Source\PSoC4/Jetty_I2C_MASTER.c **** *  Jetty_mstrRdBufIndex - used to current index within master read
 785:Generated_Source\PSoC4/Jetty_I2C_MASTER.c **** *   buffer.
 786:Generated_Source\PSoC4/Jetty_I2C_MASTER.c **** *  Jetty_mstrStatus - used to store current status of I2C Master.
 787:Generated_Source\PSoC4/Jetty_I2C_MASTER.c **** *
 788:Generated_Source\PSoC4/Jetty_I2C_MASTER.c **** *******************************************************************************/
 789:Generated_Source\PSoC4/Jetty_I2C_MASTER.c **** void Jetty_I2CMasterClearWriteBuf(void)
 790:Generated_Source\PSoC4/Jetty_I2C_MASTER.c **** {
 791:Generated_Source\PSoC4/Jetty_I2C_MASTER.c ****     Jetty_DisableInt();  /* Lock from interruption */
 792:Generated_Source\PSoC4/Jetty_I2C_MASTER.c **** 
 793:Generated_Source\PSoC4/Jetty_I2C_MASTER.c ****     Jetty_mstrWrBufIndex = 0u;
 794:Generated_Source\PSoC4/Jetty_I2C_MASTER.c ****     Jetty_mstrStatus    &= (uint16) ~Jetty_I2C_MSTAT_WR_CMPLT;
 795:Generated_Source\PSoC4/Jetty_I2C_MASTER.c **** 
 796:Generated_Source\PSoC4/Jetty_I2C_MASTER.c ****     Jetty_EnableInt();   /* Release lock */
 797:Generated_Source\PSoC4/Jetty_I2C_MASTER.c **** }
 798:Generated_Source\PSoC4/Jetty_I2C_MASTER.c **** 
 799:Generated_Source\PSoC4/Jetty_I2C_MASTER.c **** 
 800:Generated_Source\PSoC4/Jetty_I2C_MASTER.c **** /*******************************************************************************
 801:Generated_Source\PSoC4/Jetty_I2C_MASTER.c **** * Function Name: Jetty_I2CMasterStatus
 802:Generated_Source\PSoC4/Jetty_I2C_MASTER.c **** ****************************************************************************//**
 803:Generated_Source\PSoC4/Jetty_I2C_MASTER.c **** *
 804:Generated_Source\PSoC4/Jetty_I2C_MASTER.c **** *  Returns the master's communication status.
 805:Generated_Source\PSoC4/Jetty_I2C_MASTER.c **** *
 806:Generated_Source\PSoC4/Jetty_I2C_MASTER.c **** * \return
 807:Generated_Source\PSoC4/Jetty_I2C_MASTER.c **** *  Current status of I2C master. This status incorporates status constants.
 808:Generated_Source\PSoC4/Jetty_I2C_MASTER.c **** *  Each constant is a bit field value. The value returned may have multiple
 809:Generated_Source\PSoC4/Jetty_I2C_MASTER.c **** *  bits set to indicate the status of the read or write transfer.
 810:Generated_Source\PSoC4/Jetty_I2C_MASTER.c **** *  - Jetty_I2C_MSTAT_RD_CMPLT - Read transfer complete.
 811:Generated_Source\PSoC4/Jetty_I2C_MASTER.c **** *    The error condition status bits must be checked to ensure that
 812:Generated_Source\PSoC4/Jetty_I2C_MASTER.c **** *    read transfer was completed successfully.
 813:Generated_Source\PSoC4/Jetty_I2C_MASTER.c **** *  - Jetty_I2C_MSTAT_WR_CMPLT - Write transfer complete.
 814:Generated_Source\PSoC4/Jetty_I2C_MASTER.c **** *    The error condition status bits must be checked to ensure that write
 815:Generated_Source\PSoC4/Jetty_I2C_MASTER.c **** *    transfer was completed successfully.
 816:Generated_Source\PSoC4/Jetty_I2C_MASTER.c **** *  - Jetty_I2C_MSTAT_XFER_INP - Transfer in progress.
 817:Generated_Source\PSoC4/Jetty_I2C_MASTER.c **** *  - Jetty_I2C_MSTAT_XFER_HALT - Transfer has been halted.
 818:Generated_Source\PSoC4/Jetty_I2C_MASTER.c **** *    The I2C bus is waiting for ReStart or Stop condition generation.
 819:Generated_Source\PSoC4/Jetty_I2C_MASTER.c **** *  - Jetty_I2C_MSTAT_ERR_SHORT_XFER - Error condition: Write
 820:Generated_Source\PSoC4/Jetty_I2C_MASTER.c **** *    transfer completed before all bytes were transferred. The slave NAKed
 821:Generated_Source\PSoC4/Jetty_I2C_MASTER.c **** *    the byte which was expected to be ACKed.
 822:Generated_Source\PSoC4/Jetty_I2C_MASTER.c **** *  - Jetty_I2C_MSTAT_ERR_ADDR_NAK - Error condition: Slave did
 823:Generated_Source\PSoC4/Jetty_I2C_MASTER.c **** *    not acknowledge address.
 824:Generated_Source\PSoC4/Jetty_I2C_MASTER.c **** *  - Jetty_I2C_MSTAT_ERR_ARB_LOST - Error condition: Master lost
 825:Generated_Source\PSoC4/Jetty_I2C_MASTER.c **** *    arbitration during communications with slave.
 826:Generated_Source\PSoC4/Jetty_I2C_MASTER.c **** *  - Jetty_I2C_MSTAT_ERR_BUS_ERROR - Error condition: bus error
 827:Generated_Source\PSoC4/Jetty_I2C_MASTER.c **** *    occurred during master transfer due to misplaced Start or Stop
 828:Generated_Source\PSoC4/Jetty_I2C_MASTER.c **** *    condition on the bus.
 829:Generated_Source\PSoC4/Jetty_I2C_MASTER.c **** *  - Jetty_I2C_MSTAT_ERR_ABORT_XFER - Error condition: Slave was
ARM GAS  C:\Users\tsien\AppData\Local\Temp\ccVzEi8h.s 			page 16


 830:Generated_Source\PSoC4/Jetty_I2C_MASTER.c **** *    addressed by another master while master performed the start condition
 831:Generated_Source\PSoC4/Jetty_I2C_MASTER.c **** *    generation. As a result, master has automatically switched to slave
 832:Generated_Source\PSoC4/Jetty_I2C_MASTER.c **** *    mode and is responding. The master transaction has not taken place
 833:Generated_Source\PSoC4/Jetty_I2C_MASTER.c **** *    This error condition only applicable for Multi-Master-Slave mode.
 834:Generated_Source\PSoC4/Jetty_I2C_MASTER.c **** *  - Jetty_I2C_MSTAT_ERR_XFER - Error condition: This is the
 835:Generated_Source\PSoC4/Jetty_I2C_MASTER.c **** *    ORed value of all error conditions provided above.
 836:Generated_Source\PSoC4/Jetty_I2C_MASTER.c **** *
 837:Generated_Source\PSoC4/Jetty_I2C_MASTER.c **** * \globalvars
 838:Generated_Source\PSoC4/Jetty_I2C_MASTER.c **** *  Jetty_mstrStatus - used to store current status of I2C Master.
 839:Generated_Source\PSoC4/Jetty_I2C_MASTER.c **** *
 840:Generated_Source\PSoC4/Jetty_I2C_MASTER.c **** *******************************************************************************/
 841:Generated_Source\PSoC4/Jetty_I2C_MASTER.c **** uint32 Jetty_I2CMasterStatus(void)
 842:Generated_Source\PSoC4/Jetty_I2C_MASTER.c **** {
 843:Generated_Source\PSoC4/Jetty_I2C_MASTER.c ****     uint32 status;
 844:Generated_Source\PSoC4/Jetty_I2C_MASTER.c **** 
 845:Generated_Source\PSoC4/Jetty_I2C_MASTER.c ****     Jetty_DisableInt();  /* Lock from interruption */
 846:Generated_Source\PSoC4/Jetty_I2C_MASTER.c **** 
 847:Generated_Source\PSoC4/Jetty_I2C_MASTER.c ****     status = (uint32) Jetty_mstrStatus;
 848:Generated_Source\PSoC4/Jetty_I2C_MASTER.c **** 
 849:Generated_Source\PSoC4/Jetty_I2C_MASTER.c ****     if (Jetty_CHECK_I2C_MASTER_ACTIVE)
 850:Generated_Source\PSoC4/Jetty_I2C_MASTER.c ****     {
 851:Generated_Source\PSoC4/Jetty_I2C_MASTER.c ****         /* Add status of master pending transaction: MSTAT_XFER_INP */
 852:Generated_Source\PSoC4/Jetty_I2C_MASTER.c ****         status |= (uint32) Jetty_I2C_MSTAT_XFER_INP;
 853:Generated_Source\PSoC4/Jetty_I2C_MASTER.c ****     }
 854:Generated_Source\PSoC4/Jetty_I2C_MASTER.c **** 
 855:Generated_Source\PSoC4/Jetty_I2C_MASTER.c ****     Jetty_EnableInt();   /* Release lock */
 856:Generated_Source\PSoC4/Jetty_I2C_MASTER.c **** 
 857:Generated_Source\PSoC4/Jetty_I2C_MASTER.c ****     return(status);
 858:Generated_Source\PSoC4/Jetty_I2C_MASTER.c **** }
 859:Generated_Source\PSoC4/Jetty_I2C_MASTER.c **** 
 860:Generated_Source\PSoC4/Jetty_I2C_MASTER.c **** 
 861:Generated_Source\PSoC4/Jetty_I2C_MASTER.c **** /*******************************************************************************
 862:Generated_Source\PSoC4/Jetty_I2C_MASTER.c **** * Function Name: Jetty_I2CMasterClearStatus
 863:Generated_Source\PSoC4/Jetty_I2C_MASTER.c **** ****************************************************************************//**
 864:Generated_Source\PSoC4/Jetty_I2C_MASTER.c **** *
 865:Generated_Source\PSoC4/Jetty_I2C_MASTER.c **** *  Clears all status flags and returns the master status.
 866:Generated_Source\PSoC4/Jetty_I2C_MASTER.c **** *
 867:Generated_Source\PSoC4/Jetty_I2C_MASTER.c **** * \return
 868:Generated_Source\PSoC4/Jetty_I2C_MASTER.c **** *  Current status of master. See the Jetty_I2CMasterStatus()
 869:Generated_Source\PSoC4/Jetty_I2C_MASTER.c **** *  function for constants.
 870:Generated_Source\PSoC4/Jetty_I2C_MASTER.c **** *
 871:Generated_Source\PSoC4/Jetty_I2C_MASTER.c **** * \globalvars
 872:Generated_Source\PSoC4/Jetty_I2C_MASTER.c **** *  Jetty_mstrStatus - used to store current status of I2C Master.
 873:Generated_Source\PSoC4/Jetty_I2C_MASTER.c **** *
 874:Generated_Source\PSoC4/Jetty_I2C_MASTER.c **** *******************************************************************************/
 875:Generated_Source\PSoC4/Jetty_I2C_MASTER.c **** uint32 Jetty_I2CMasterClearStatus(void)
 876:Generated_Source\PSoC4/Jetty_I2C_MASTER.c **** {
 877:Generated_Source\PSoC4/Jetty_I2C_MASTER.c ****     uint32 status;
 878:Generated_Source\PSoC4/Jetty_I2C_MASTER.c **** 
 879:Generated_Source\PSoC4/Jetty_I2C_MASTER.c ****     Jetty_DisableInt();  /* Lock from interruption */
 880:Generated_Source\PSoC4/Jetty_I2C_MASTER.c **** 
 881:Generated_Source\PSoC4/Jetty_I2C_MASTER.c ****     /* Read and clear master status */
 882:Generated_Source\PSoC4/Jetty_I2C_MASTER.c ****     status = (uint32) Jetty_mstrStatus;
 883:Generated_Source\PSoC4/Jetty_I2C_MASTER.c ****     Jetty_mstrStatus = Jetty_I2C_MSTAT_CLEAR;
 884:Generated_Source\PSoC4/Jetty_I2C_MASTER.c **** 
 885:Generated_Source\PSoC4/Jetty_I2C_MASTER.c ****     Jetty_EnableInt();   /* Release lock */
 886:Generated_Source\PSoC4/Jetty_I2C_MASTER.c **** 
ARM GAS  C:\Users\tsien\AppData\Local\Temp\ccVzEi8h.s 			page 17


 887:Generated_Source\PSoC4/Jetty_I2C_MASTER.c ****     return(status);
 888:Generated_Source\PSoC4/Jetty_I2C_MASTER.c **** }
 889:Generated_Source\PSoC4/Jetty_I2C_MASTER.c **** 
 890:Generated_Source\PSoC4/Jetty_I2C_MASTER.c **** 
 891:Generated_Source\PSoC4/Jetty_I2C_MASTER.c **** /*******************************************************************************
 892:Generated_Source\PSoC4/Jetty_I2C_MASTER.c **** * Function Name: Jetty_I2CReStartGeneration
 893:Generated_Source\PSoC4/Jetty_I2C_MASTER.c **** ****************************************************************************//**
 894:Generated_Source\PSoC4/Jetty_I2C_MASTER.c **** *
 895:Generated_Source\PSoC4/Jetty_I2C_MASTER.c **** *  Generates a ReStart condition:
 896:Generated_Source\PSoC4/Jetty_I2C_MASTER.c **** *  - SCB IP V1 and later: Generates ReStart using the scb IP functionality
 897:Generated_Source\PSoC4/Jetty_I2C_MASTER.c **** *    Sets the I2C_MASTER_CMD_M_START and I2C_MASTER_CMD_M_NACK (if the previous
 898:Generated_Source\PSoC4/Jetty_I2C_MASTER.c **** *    transaction was read) bits in the SCB.I2C_MASTER_CMD register.
 899:Generated_Source\PSoC4/Jetty_I2C_MASTER.c **** *    This combination forces the master to generate ReStart.
 900:Generated_Source\PSoC4/Jetty_I2C_MASTER.c **** *
 901:Generated_Source\PSoC4/Jetty_I2C_MASTER.c **** *  - SCB IP V0: Generates Restart using the GPIO and scb IP functionality.
 902:Generated_Source\PSoC4/Jetty_I2C_MASTER.c **** *    After the master completes write or read, the SCL is stretched.
 903:Generated_Source\PSoC4/Jetty_I2C_MASTER.c **** *    The master waits until SDA line is released by the slave. Then the GPIO
 904:Generated_Source\PSoC4/Jetty_I2C_MASTER.c **** *    function is enabled and the scb IP disabled as it already does not drive
 905:Generated_Source\PSoC4/Jetty_I2C_MASTER.c **** *    the bus. In case of the previous transfer was read, the NACK is generated
 906:Generated_Source\PSoC4/Jetty_I2C_MASTER.c **** *    by the GPIO. The delay of tLOW is added to manage the hold time.
 907:Generated_Source\PSoC4/Jetty_I2C_MASTER.c **** *    Set I2C_M_CMD.START and enable the scb IP. The ReStart generation
 908:Generated_Source\PSoC4/Jetty_I2C_MASTER.c **** *    is started after the I2C function is enabled for the SCL.
 909:Generated_Source\PSoC4/Jetty_I2C_MASTER.c **** *    Note1: the scb IP due re-enable generates Start but on the I2C bus it
 910:Generated_Source\PSoC4/Jetty_I2C_MASTER.c **** *           appears as ReStart.
 911:Generated_Source\PSoC4/Jetty_I2C_MASTER.c **** *    Note2: the I2C_M_CMD.START is queued if scb IP is disabled.
 912:Generated_Source\PSoC4/Jetty_I2C_MASTER.c **** *    Note3: the I2C_STATUS_M_READ is cleared is address was NACKed before.
 913:Generated_Source\PSoC4/Jetty_I2C_MASTER.c **** *
 914:Generated_Source\PSoC4/Jetty_I2C_MASTER.c **** * \sideeffect
 915:Generated_Source\PSoC4/Jetty_I2C_MASTER.c **** *  SCB IP V0: The NACK generation by the GPIO may cause a greater SCL period
 916:Generated_Source\PSoC4/Jetty_I2C_MASTER.c **** *             than expected for the selected master data rate.
 917:Generated_Source\PSoC4/Jetty_I2C_MASTER.c **** *
 918:Generated_Source\PSoC4/Jetty_I2C_MASTER.c **** *******************************************************************************/
 919:Generated_Source\PSoC4/Jetty_I2C_MASTER.c **** void Jetty_I2CReStartGeneration(void)
 920:Generated_Source\PSoC4/Jetty_I2C_MASTER.c **** {
 921:Generated_Source\PSoC4/Jetty_I2C_MASTER.c **** #if(Jetty_CY_SCBIP_V0)
 922:Generated_Source\PSoC4/Jetty_I2C_MASTER.c ****     /* Generates Restart use GPIO and scb IP functionality. Ticket ID#143715,
 923:Generated_Source\PSoC4/Jetty_I2C_MASTER.c ****     * ID#145238 and ID#173656.
 924:Generated_Source\PSoC4/Jetty_I2C_MASTER.c ****     * In case of timeout the Jetty_I2CMasterSendRestart handles this
 925:Generated_Source\PSoC4/Jetty_I2C_MASTER.c ****     * case using own timeout and execute appropriate recovery.
 926:Generated_Source\PSoC4/Jetty_I2C_MASTER.c ****     */
 927:Generated_Source\PSoC4/Jetty_I2C_MASTER.c **** 
 928:Generated_Source\PSoC4/Jetty_I2C_MASTER.c ****     const uint16 oneUnit = 1u;
 929:Generated_Source\PSoC4/Jetty_I2C_MASTER.c ****     uint32 timeout = Jetty_I2C_PHASE_GEN_TIMEOUT;
 930:Generated_Source\PSoC4/Jetty_I2C_MASTER.c **** 
 931:Generated_Source\PSoC4/Jetty_I2C_MASTER.c ****     /* Store direction of transfer */
 932:Generated_Source\PSoC4/Jetty_I2C_MASTER.c ****     uint32 readDirection = Jetty_I2C_STATUS_REG & Jetty_I2C_STATUS_M_READ;
 933:Generated_Source\PSoC4/Jetty_I2C_MASTER.c **** 
 934:Generated_Source\PSoC4/Jetty_I2C_MASTER.c ****     /* Wait until slave releases SDA line: SCL tHIGH is complete */
 935:Generated_Source\PSoC4/Jetty_I2C_MASTER.c ****     while ((Jetty_WAIT_SDA_SET_HIGH) && (timeout > 0u))
 936:Generated_Source\PSoC4/Jetty_I2C_MASTER.c ****     {
 937:Generated_Source\PSoC4/Jetty_I2C_MASTER.c ****         CyDelayUs(oneUnit);
 938:Generated_Source\PSoC4/Jetty_I2C_MASTER.c ****         --timeout;
 939:Generated_Source\PSoC4/Jetty_I2C_MASTER.c ****     }
 940:Generated_Source\PSoC4/Jetty_I2C_MASTER.c **** 
 941:Generated_Source\PSoC4/Jetty_I2C_MASTER.c ****     if (timeout > 0u)
 942:Generated_Source\PSoC4/Jetty_I2C_MASTER.c ****     {
 943:Generated_Source\PSoC4/Jetty_I2C_MASTER.c ****         /* Refill timeout */
ARM GAS  C:\Users\tsien\AppData\Local\Temp\ccVzEi8h.s 			page 18


 944:Generated_Source\PSoC4/Jetty_I2C_MASTER.c ****         timeout = Jetty_I2C_PHASE_GEN_TIMEOUT;
 945:Generated_Source\PSoC4/Jetty_I2C_MASTER.c **** 
 946:Generated_Source\PSoC4/Jetty_I2C_MASTER.c ****         /* Drive SCL line use GPIO */
 947:Generated_Source\PSoC4/Jetty_I2C_MASTER.c ****         Jetty_SET_I2C_SCL_DR       (Jetty_I2C_SCL_LOW);
 948:Generated_Source\PSoC4/Jetty_I2C_MASTER.c ****         Jetty_SET_I2C_SCL_HSIOM_SEL(Jetty_HSIOM_GPIO_SEL);
 949:Generated_Source\PSoC4/Jetty_I2C_MASTER.c **** 
 950:Generated_Source\PSoC4/Jetty_I2C_MASTER.c ****         /* Disable SCB block */
 951:Generated_Source\PSoC4/Jetty_I2C_MASTER.c ****         Jetty_CTRL_REG &= (uint32) ~Jetty_CTRL_ENABLED;
 952:Generated_Source\PSoC4/Jetty_I2C_MASTER.c **** 
 953:Generated_Source\PSoC4/Jetty_I2C_MASTER.c ****         if (0u != readDirection)
 954:Generated_Source\PSoC4/Jetty_I2C_MASTER.c ****         {
 955:Generated_Source\PSoC4/Jetty_I2C_MASTER.c ****             /* Generate NACK for read transactions use GPIO functionality */
 956:Generated_Source\PSoC4/Jetty_I2C_MASTER.c **** 
 957:Generated_Source\PSoC4/Jetty_I2C_MASTER.c ****             /* Drive tLOW: SCL low phase */
 958:Generated_Source\PSoC4/Jetty_I2C_MASTER.c ****             Jetty_SET_I2C_SCL_DR(Jetty_I2C_SCL_LOW);
 959:Generated_Source\PSoC4/Jetty_I2C_MASTER.c ****             CyDelayUs(Jetty_I2C_TLOW_TIME);
 960:Generated_Source\PSoC4/Jetty_I2C_MASTER.c **** 
 961:Generated_Source\PSoC4/Jetty_I2C_MASTER.c ****             /* Drive tHIGH: SCL high phase */
 962:Generated_Source\PSoC4/Jetty_I2C_MASTER.c ****             Jetty_SET_I2C_SCL_DR(Jetty_I2C_SCL_HIGH);
 963:Generated_Source\PSoC4/Jetty_I2C_MASTER.c ****             CyDelayUs(Jetty_I2C_THIGH_TIME);
 964:Generated_Source\PSoC4/Jetty_I2C_MASTER.c **** 
 965:Generated_Source\PSoC4/Jetty_I2C_MASTER.c ****             /* Wait until slave releases SDA line: SCL tHIGH is complete */
 966:Generated_Source\PSoC4/Jetty_I2C_MASTER.c ****             while ((Jetty_WAIT_SCL_SET_HIGH) && (timeout > 0u))
 967:Generated_Source\PSoC4/Jetty_I2C_MASTER.c ****             {
 968:Generated_Source\PSoC4/Jetty_I2C_MASTER.c ****                 CyDelayUs(oneUnit);
 969:Generated_Source\PSoC4/Jetty_I2C_MASTER.c ****                 --timeout;
 970:Generated_Source\PSoC4/Jetty_I2C_MASTER.c ****             }
 971:Generated_Source\PSoC4/Jetty_I2C_MASTER.c ****         }
 972:Generated_Source\PSoC4/Jetty_I2C_MASTER.c **** 
 973:Generated_Source\PSoC4/Jetty_I2C_MASTER.c ****         if (timeout > 0u)
 974:Generated_Source\PSoC4/Jetty_I2C_MASTER.c ****         {
 975:Generated_Source\PSoC4/Jetty_I2C_MASTER.c ****             /* Drive tLOW: hold time for write and read */
 976:Generated_Source\PSoC4/Jetty_I2C_MASTER.c ****             Jetty_SET_I2C_SCL_DR(Jetty_I2C_SCL_LOW);
 977:Generated_Source\PSoC4/Jetty_I2C_MASTER.c ****             CyDelayUs(Jetty_I2C_TLOW_TIME);
 978:Generated_Source\PSoC4/Jetty_I2C_MASTER.c **** 
 979:Generated_Source\PSoC4/Jetty_I2C_MASTER.c ****             /* Set Start command, it will appear as ReStart on the bus */
 980:Generated_Source\PSoC4/Jetty_I2C_MASTER.c ****             Jetty_I2C_MASTER_CMD_REG  = Jetty_I2C_MASTER_CMD_M_START;
 981:Generated_Source\PSoC4/Jetty_I2C_MASTER.c ****         }
 982:Generated_Source\PSoC4/Jetty_I2C_MASTER.c **** 
 983:Generated_Source\PSoC4/Jetty_I2C_MASTER.c ****         /* Enable SCB block: ReStart will appear on the bus as soon as SCL
 984:Generated_Source\PSoC4/Jetty_I2C_MASTER.c ****         * configuration is restored and bus busy cleared.
 985:Generated_Source\PSoC4/Jetty_I2C_MASTER.c ****         */
 986:Generated_Source\PSoC4/Jetty_I2C_MASTER.c ****         Jetty_CTRL_REG |= Jetty_CTRL_ENABLED;
 987:Generated_Source\PSoC4/Jetty_I2C_MASTER.c **** 
 988:Generated_Source\PSoC4/Jetty_I2C_MASTER.c ****         /* Restore SCL configuration */
 989:Generated_Source\PSoC4/Jetty_I2C_MASTER.c ****         Jetty_SET_I2C_SCL_HSIOM_SEL(Jetty_HSIOM_I2C_SEL);
 990:Generated_Source\PSoC4/Jetty_I2C_MASTER.c ****         Jetty_SET_I2C_SCL_DR       (Jetty_I2C_SCL_HIGH);
 991:Generated_Source\PSoC4/Jetty_I2C_MASTER.c ****     }
 992:Generated_Source\PSoC4/Jetty_I2C_MASTER.c **** #else
 993:Generated_Source\PSoC4/Jetty_I2C_MASTER.c ****     uint32 cmd;
 994:Generated_Source\PSoC4/Jetty_I2C_MASTER.c **** 
 995:Generated_Source\PSoC4/Jetty_I2C_MASTER.c ****     /* Generates ReStart use scb IP functionality */
 996:Generated_Source\PSoC4/Jetty_I2C_MASTER.c ****     cmd  = Jetty_I2C_MASTER_CMD_M_START;
 997:Generated_Source\PSoC4/Jetty_I2C_MASTER.c ****     cmd |= Jetty_CHECK_I2C_STATUS(Jetty_I2C_STATUS_M_READ) ?
 998:Generated_Source\PSoC4/Jetty_I2C_MASTER.c ****                 (Jetty_I2C_MASTER_CMD_M_NACK) : (0u);
 999:Generated_Source\PSoC4/Jetty_I2C_MASTER.c **** 
1000:Generated_Source\PSoC4/Jetty_I2C_MASTER.c ****     Jetty_I2C_MASTER_CMD_REG = cmd;
ARM GAS  C:\Users\tsien\AppData\Local\Temp\ccVzEi8h.s 			page 19


1001:Generated_Source\PSoC4/Jetty_I2C_MASTER.c **** #endif /* (Jetty_CY_SCBIP_V1) */
1002:Generated_Source\PSoC4/Jetty_I2C_MASTER.c **** }
1003:Generated_Source\PSoC4/Jetty_I2C_MASTER.c **** 
1004:Generated_Source\PSoC4/Jetty_I2C_MASTER.c **** #endif /* (Jetty_I2C_MASTER_CONST) */
1005:Generated_Source\PSoC4/Jetty_I2C_MASTER.c **** 
1006:Generated_Source\PSoC4/Jetty_I2C_MASTER.c **** 
1007:Generated_Source\PSoC4/Jetty_I2C_MASTER.c **** #if (!Jetty_CY_SCBIP_V0 && \
1008:Generated_Source\PSoC4/Jetty_I2C_MASTER.c ****     Jetty_I2C_MULTI_MASTER_SLAVE_CONST && Jetty_I2C_WAKE_ENABLE_CONST)
1009:Generated_Source\PSoC4/Jetty_I2C_MASTER.c ****     /*******************************************************************************
1010:Generated_Source\PSoC4/Jetty_I2C_MASTER.c ****     * Function Name: Jetty_I2CMasterDisableEcAm
1011:Generated_Source\PSoC4/Jetty_I2C_MASTER.c ****     ****************************************************************************//**
1012:Generated_Source\PSoC4/Jetty_I2C_MASTER.c ****     *
1013:Generated_Source\PSoC4/Jetty_I2C_MASTER.c ****     *  Disables externally clocked address match logic to enable master operation
1014:Generated_Source\PSoC4/Jetty_I2C_MASTER.c ****     *  in active mode.
1015:Generated_Source\PSoC4/Jetty_I2C_MASTER.c ****     *
1016:Generated_Source\PSoC4/Jetty_I2C_MASTER.c ****     *******************************************************************************/
1017:Generated_Source\PSoC4/Jetty_I2C_MASTER.c ****     static void Jetty_I2CMasterDisableEcAm(void)
1018:Generated_Source\PSoC4/Jetty_I2C_MASTER.c ****     {
1019:Generated_Source\PSoC4/Jetty_I2C_MASTER.c ****         /* Disables externally clocked address match logic to enable master operation
1020:Generated_Source\PSoC4/Jetty_I2C_MASTER.c ****         * in active mode. This applicable only for Multi-Master-Slave when wakeup is
1021:Generated_Source\PSoC4/Jetty_I2C_MASTER.c ****         * enabled. Ticket ID#192742.
1022:Generated_Source\PSoC4/Jetty_I2C_MASTER.c ****         */
1023:Generated_Source\PSoC4/Jetty_I2C_MASTER.c ****         if (0u != (Jetty_CTRL_REG & Jetty_CTRL_EC_AM_MODE))
1024:Generated_Source\PSoC4/Jetty_I2C_MASTER.c ****         {
1025:Generated_Source\PSoC4/Jetty_I2C_MASTER.c ****             /* Enable external address match logic */
1026:Generated_Source\PSoC4/Jetty_I2C_MASTER.c ****             Jetty_Stop();
1027:Generated_Source\PSoC4/Jetty_I2C_MASTER.c ****             Jetty_CTRL_REG &= (uint32) ~Jetty_CTRL_EC_AM_MODE;
1028:Generated_Source\PSoC4/Jetty_I2C_MASTER.c ****             Jetty_Enable();
1029:Generated_Source\PSoC4/Jetty_I2C_MASTER.c ****         }
1030:Generated_Source\PSoC4/Jetty_I2C_MASTER.c ****     }
1031:Generated_Source\PSoC4/Jetty_I2C_MASTER.c **** #endif /* (!Jetty_CY_SCBIP_V0) */
1032:Generated_Source\PSoC4/Jetty_I2C_MASTER.c **** 
1033:Generated_Source\PSoC4/Jetty_I2C_MASTER.c **** 
1034:Generated_Source\PSoC4/Jetty_I2C_MASTER.c **** /*******************************************************************************
1035:Generated_Source\PSoC4/Jetty_I2C_MASTER.c **** * Function Name: Jetty_I2CMasterHandleStatus
1036:Generated_Source\PSoC4/Jetty_I2C_MASTER.c **** ****************************************************************************//**
1037:Generated_Source\PSoC4/Jetty_I2C_MASTER.c **** *
1038:Generated_Source\PSoC4/Jetty_I2C_MASTER.c **** * Converts hardware status to firmware status and executes required processing.
1039:Generated_Source\PSoC4/Jetty_I2C_MASTER.c **** *
1040:Generated_Source\PSoC4/Jetty_I2C_MASTER.c **** * \param status
1041:Generated_Source\PSoC4/Jetty_I2C_MASTER.c **** * Hardware I2C master status to handle. It also includes
1042:Generated_Source\PSoC4/Jetty_I2C_MASTER.c **** * Jetty_I2C_MASTER_TIMEOUT and Jetty_SLAVE_INTR_I2C_ADDR.
1043:Generated_Source\PSoC4/Jetty_I2C_MASTER.c **** *
1044:Generated_Source\PSoC4/Jetty_I2C_MASTER.c **** * \return
1045:Generated_Source\PSoC4/Jetty_I2C_MASTER.c **** * Error status.
1046:Generated_Source\PSoC4/Jetty_I2C_MASTER.c **** * See Jetty_I2CMasterSendStart() function for constants.
1047:Generated_Source\PSoC4/Jetty_I2C_MASTER.c **** *
1048:Generated_Source\PSoC4/Jetty_I2C_MASTER.c **** *******************************************************************************/
1049:Generated_Source\PSoC4/Jetty_I2C_MASTER.c **** static uint32 Jetty_I2CMasterHandleStatus(uint32 status)
1050:Generated_Source\PSoC4/Jetty_I2C_MASTER.c **** {
1051:Generated_Source\PSoC4/Jetty_I2C_MASTER.c ****     uint32 retStatus;
1052:Generated_Source\PSoC4/Jetty_I2C_MASTER.c ****     uint32 resetBlock = 0u;
1053:Generated_Source\PSoC4/Jetty_I2C_MASTER.c **** 
1054:Generated_Source\PSoC4/Jetty_I2C_MASTER.c ****     if (0u != (status & Jetty_I2C_MASTER_TIMEOUT))
1055:Generated_Source\PSoC4/Jetty_I2C_MASTER.c ****     {
1056:Generated_Source\PSoC4/Jetty_I2C_MASTER.c ****         retStatus  = Jetty_I2C_MASTER_TIMEOUT;
1057:Generated_Source\PSoC4/Jetty_I2C_MASTER.c ****         resetBlock = Jetty_I2C_RESET_ERROR;
ARM GAS  C:\Users\tsien\AppData\Local\Temp\ccVzEi8h.s 			page 20


1058:Generated_Source\PSoC4/Jetty_I2C_MASTER.c ****     }
1059:Generated_Source\PSoC4/Jetty_I2C_MASTER.c ****     else if (0u != (Jetty_SLAVE_INTR_I2C_ADDR & status))
1060:Generated_Source\PSoC4/Jetty_I2C_MASTER.c ****     {
1061:Generated_Source\PSoC4/Jetty_I2C_MASTER.c ****         /* Abort the master operation, the slave was addressed first */
1062:Generated_Source\PSoC4/Jetty_I2C_MASTER.c ****         retStatus = Jetty_I2C_MSTR_ERR_ABORT_START;
1063:Generated_Source\PSoC4/Jetty_I2C_MASTER.c **** 
1064:Generated_Source\PSoC4/Jetty_I2C_MASTER.c ****         Jetty_I2C_MASTER_CMD_REG = 0u;
1065:Generated_Source\PSoC4/Jetty_I2C_MASTER.c **** 
1066:Generated_Source\PSoC4/Jetty_I2C_MASTER.c ****         Jetty_state = Jetty_I2C_FSM_IDLE;
1067:Generated_Source\PSoC4/Jetty_I2C_MASTER.c ****     }
1068:Generated_Source\PSoC4/Jetty_I2C_MASTER.c ****     else if (0u != (status & Jetty_INTR_MASTER_I2C_ARB_LOST))
1069:Generated_Source\PSoC4/Jetty_I2C_MASTER.c ****     {
1070:Generated_Source\PSoC4/Jetty_I2C_MASTER.c ****         retStatus  = Jetty_I2C_MSTR_ERR_ARB_LOST;
1071:Generated_Source\PSoC4/Jetty_I2C_MASTER.c **** 
1072:Generated_Source\PSoC4/Jetty_I2C_MASTER.c ****         if (Jetty_CHECK_I2C_FSM_ADDR)
1073:Generated_Source\PSoC4/Jetty_I2C_MASTER.c ****         {
1074:Generated_Source\PSoC4/Jetty_I2C_MASTER.c ****             /* If slave is not enabled reset IP, otherwise give it a chance to match address */
1075:Generated_Source\PSoC4/Jetty_I2C_MASTER.c ****             if (0u == (Jetty_I2C_CTRL_REG & Jetty_I2C_CTRL_SLAVE_MODE))
1076:Generated_Source\PSoC4/Jetty_I2C_MASTER.c ****             {
1077:Generated_Source\PSoC4/Jetty_I2C_MASTER.c ****                 resetBlock = Jetty_I2C_RESET_ERROR;
1078:Generated_Source\PSoC4/Jetty_I2C_MASTER.c ****             }
1079:Generated_Source\PSoC4/Jetty_I2C_MASTER.c **** 
1080:Generated_Source\PSoC4/Jetty_I2C_MASTER.c ****             Jetty_state = Jetty_I2C_FSM_IDLE;
1081:Generated_Source\PSoC4/Jetty_I2C_MASTER.c ****         }
1082:Generated_Source\PSoC4/Jetty_I2C_MASTER.c ****         else
1083:Generated_Source\PSoC4/Jetty_I2C_MASTER.c ****         {
1084:Generated_Source\PSoC4/Jetty_I2C_MASTER.c ****             /* Reset IP block when on address stage */
1085:Generated_Source\PSoC4/Jetty_I2C_MASTER.c ****             resetBlock = Jetty_I2C_RESET_ERROR;
1086:Generated_Source\PSoC4/Jetty_I2C_MASTER.c ****         }
1087:Generated_Source\PSoC4/Jetty_I2C_MASTER.c ****     }
1088:Generated_Source\PSoC4/Jetty_I2C_MASTER.c ****     else if (0u != (status & Jetty_INTR_MASTER_I2C_BUS_ERROR))
1089:Generated_Source\PSoC4/Jetty_I2C_MASTER.c ****     {
1090:Generated_Source\PSoC4/Jetty_I2C_MASTER.c ****         retStatus  = Jetty_I2C_MSTR_ERR_BUS_ERR;
1091:Generated_Source\PSoC4/Jetty_I2C_MASTER.c ****         resetBlock = Jetty_I2C_RESET_ERROR;
1092:Generated_Source\PSoC4/Jetty_I2C_MASTER.c ****     }
1093:Generated_Source\PSoC4/Jetty_I2C_MASTER.c ****     else if (0u != (status & Jetty_INTR_MASTER_I2C_NACK))
1094:Generated_Source\PSoC4/Jetty_I2C_MASTER.c ****     {
1095:Generated_Source\PSoC4/Jetty_I2C_MASTER.c ****         retStatus = Jetty_I2C_MSTR_ERR_LB_NAK;
1096:Generated_Source\PSoC4/Jetty_I2C_MASTER.c ****     }
1097:Generated_Source\PSoC4/Jetty_I2C_MASTER.c ****     else /* Includes: INTR_MASTER_I2C_STOP and INTR_MASTER_I2C_ACK */
1098:Generated_Source\PSoC4/Jetty_I2C_MASTER.c ****     {
1099:Generated_Source\PSoC4/Jetty_I2C_MASTER.c ****         retStatus = Jetty_I2C_MSTR_NO_ERROR;
1100:Generated_Source\PSoC4/Jetty_I2C_MASTER.c **** 
1101:Generated_Source\PSoC4/Jetty_I2C_MASTER.c ****         if (0u != (status & Jetty_INTR_MASTER_I2C_STOP))
1102:Generated_Source\PSoC4/Jetty_I2C_MASTER.c ****         {
1103:Generated_Source\PSoC4/Jetty_I2C_MASTER.c ****             /* Stop: end of transaction, go to idle state */
1104:Generated_Source\PSoC4/Jetty_I2C_MASTER.c ****             Jetty_state = Jetty_I2C_FSM_IDLE;
1105:Generated_Source\PSoC4/Jetty_I2C_MASTER.c ****         }
1106:Generated_Source\PSoC4/Jetty_I2C_MASTER.c ****         else
1107:Generated_Source\PSoC4/Jetty_I2C_MASTER.c ****         {
1108:Generated_Source\PSoC4/Jetty_I2C_MASTER.c ****             /* ACK: continue transaction */
1109:Generated_Source\PSoC4/Jetty_I2C_MASTER.c ****             if (Jetty_CHECK_I2C_FSM_ADDR)
1110:Generated_Source\PSoC4/Jetty_I2C_MASTER.c ****             {
1111:Generated_Source\PSoC4/Jetty_I2C_MASTER.c ****                 /* Move from address state to data */
1112:Generated_Source\PSoC4/Jetty_I2C_MASTER.c ****                 Jetty_state = (Jetty_CHECK_I2C_FSM_RD) ?
1113:Generated_Source\PSoC4/Jetty_I2C_MASTER.c ****                                           Jetty_I2C_FSM_MSTR_RD_DATA : Jetty_I2C_FSM_MSTR_WR_DATA;
1114:Generated_Source\PSoC4/Jetty_I2C_MASTER.c ****             }
ARM GAS  C:\Users\tsien\AppData\Local\Temp\ccVzEi8h.s 			page 21


1115:Generated_Source\PSoC4/Jetty_I2C_MASTER.c ****         }
1116:Generated_Source\PSoC4/Jetty_I2C_MASTER.c ****     }
1117:Generated_Source\PSoC4/Jetty_I2C_MASTER.c **** 
1118:Generated_Source\PSoC4/Jetty_I2C_MASTER.c ****     if (Jetty_I2C_RESET_ERROR == resetBlock)
1119:Generated_Source\PSoC4/Jetty_I2C_MASTER.c ****     {
1120:Generated_Source\PSoC4/Jetty_I2C_MASTER.c ****         Jetty_I2CFwBlockReset();
1121:Generated_Source\PSoC4/Jetty_I2C_MASTER.c ****     }
1122:Generated_Source\PSoC4/Jetty_I2C_MASTER.c ****     else
1123:Generated_Source\PSoC4/Jetty_I2C_MASTER.c ****     {
1124:Generated_Source\PSoC4/Jetty_I2C_MASTER.c ****         Jetty_ClearMasterInterruptSource(Jetty_INTR_MASTER_ALL);
1125:Generated_Source\PSoC4/Jetty_I2C_MASTER.c ****     }
1126:Generated_Source\PSoC4/Jetty_I2C_MASTER.c **** 
1127:Generated_Source\PSoC4/Jetty_I2C_MASTER.c ****     return (retStatus);
1128:Generated_Source\PSoC4/Jetty_I2C_MASTER.c **** }
1129:Generated_Source\PSoC4/Jetty_I2C_MASTER.c **** 
1130:Generated_Source\PSoC4/Jetty_I2C_MASTER.c **** 
1131:Generated_Source\PSoC4/Jetty_I2C_MASTER.c **** /******************************************************************************
1132:Generated_Source\PSoC4/Jetty_I2C_MASTER.c **** * Function Name: I2CMasterWaitOneUnit
1133:Generated_Source\PSoC4/Jetty_I2C_MASTER.c **** ****************************************************************************//**
1134:Generated_Source\PSoC4/Jetty_I2C_MASTER.c **** *
1135:Generated_Source\PSoC4/Jetty_I2C_MASTER.c **** * Waits for one unit before unblock code execution.
1136:Generated_Source\PSoC4/Jetty_I2C_MASTER.c **** * Note If a timeout value is 0, this function does nothing and returns 0.
1137:Generated_Source\PSoC4/Jetty_I2C_MASTER.c **** *
1138:Generated_Source\PSoC4/Jetty_I2C_MASTER.c **** * \param timeout
1139:Generated_Source\PSoC4/Jetty_I2C_MASTER.c **** * The pointer to a timeout value.
1140:Generated_Source\PSoC4/Jetty_I2C_MASTER.c **** *
1141:Generated_Source\PSoC4/Jetty_I2C_MASTER.c **** * \return
1142:Generated_Source\PSoC4/Jetty_I2C_MASTER.c **** * Returns 0 if a timeout does not expire or the timeout mask.
1143:Generated_Source\PSoC4/Jetty_I2C_MASTER.c **** *
1144:Generated_Source\PSoC4/Jetty_I2C_MASTER.c **** *******************************************************************************/
1145:Generated_Source\PSoC4/Jetty_I2C_MASTER.c **** static uint32 Jetty_I2CMasterWaitOneUnit(uint32 *timeout)
1146:Generated_Source\PSoC4/Jetty_I2C_MASTER.c **** {
  27              		.loc 1 1146 0
  28              		.cfi_startproc
  29              		@ args = 0, pretend = 0, frame = 0
  30              		@ frame_needed = 0, uses_anonymous_args = 0
  31              	.LVL0:
  32 0000 10B5     		push	{r4, lr}
  33              		.cfi_def_cfa_offset 8
  34              		.cfi_offset 4, -8
  35              		.cfi_offset 14, -4
  36 0002 0400     		movs	r4, r0
  37              	.LVL1:
1147:Generated_Source\PSoC4/Jetty_I2C_MASTER.c ****     const uint16 oneUnit = 1u;
1148:Generated_Source\PSoC4/Jetty_I2C_MASTER.c ****     uint32 status = 0u;
1149:Generated_Source\PSoC4/Jetty_I2C_MASTER.c **** 
1150:Generated_Source\PSoC4/Jetty_I2C_MASTER.c ****     /* If the timeout equal to 0. Ignore the timeout */
1151:Generated_Source\PSoC4/Jetty_I2C_MASTER.c ****     if (*timeout > 0u)
  38              		.loc 1 1151 0
  39 0004 0368     		ldr	r3, [r0]
  40 0006 002B     		cmp	r3, #0
  41 0008 09D0     		beq	.L3
1152:Generated_Source\PSoC4/Jetty_I2C_MASTER.c ****     {
1153:Generated_Source\PSoC4/Jetty_I2C_MASTER.c ****         CyDelayUs(oneUnit);
  42              		.loc 1 1153 0
  43 000a 0120     		movs	r0, #1
  44              	.LVL2:
ARM GAS  C:\Users\tsien\AppData\Local\Temp\ccVzEi8h.s 			page 22


  45 000c FFF7FEFF 		bl	CyDelayUs
  46              	.LVL3:
1154:Generated_Source\PSoC4/Jetty_I2C_MASTER.c ****         --(*timeout);
  47              		.loc 1 1154 0
  48 0010 2368     		ldr	r3, [r4]
  49 0012 013B     		subs	r3, r3, #1
  50 0014 2360     		str	r3, [r4]
1155:Generated_Source\PSoC4/Jetty_I2C_MASTER.c **** 
1156:Generated_Source\PSoC4/Jetty_I2C_MASTER.c ****         if (0u == *timeout)
  51              		.loc 1 1156 0
  52 0016 002B     		cmp	r3, #0
  53 0018 03D0     		beq	.L4
1148:Generated_Source\PSoC4/Jetty_I2C_MASTER.c **** 
  54              		.loc 1 1148 0
  55 001a 0020     		movs	r0, #0
  56 001c 03E0     		b	.L2
  57              	.LVL4:
  58              	.L3:
  59 001e 0020     		movs	r0, #0
  60              	.LVL5:
  61 0020 01E0     		b	.L2
  62              	.L4:
1157:Generated_Source\PSoC4/Jetty_I2C_MASTER.c ****         {
1158:Generated_Source\PSoC4/Jetty_I2C_MASTER.c ****             status = Jetty_I2C_MASTER_TIMEOUT;
  63              		.loc 1 1158 0
  64 0022 8020     		movs	r0, #128
  65 0024 0006     		lsls	r0, r0, #24
  66              	.L2:
  67              	.LVL6:
1159:Generated_Source\PSoC4/Jetty_I2C_MASTER.c ****         }
1160:Generated_Source\PSoC4/Jetty_I2C_MASTER.c ****     }
1161:Generated_Source\PSoC4/Jetty_I2C_MASTER.c **** 
1162:Generated_Source\PSoC4/Jetty_I2C_MASTER.c ****     return (status);
1163:Generated_Source\PSoC4/Jetty_I2C_MASTER.c **** }
  68              		.loc 1 1163 0
  69              		@ sp needed
  70              	.LVL7:
  71 0026 10BD     		pop	{r4, pc}
  72              		.cfi_endproc
  73              	.LFE15:
  74              		.size	Jetty_I2CMasterWaitOneUnit, .-Jetty_I2CMasterWaitOneUnit
  75              		.section	.text.Jetty_I2CMasterHandleStatus,"ax",%progbits
  76              		.align	2
  77              		.code	16
  78              		.thumb_func
  79              		.type	Jetty_I2CMasterHandleStatus, %function
  80              	Jetty_I2CMasterHandleStatus:
  81              	.LFB14:
1050:Generated_Source\PSoC4/Jetty_I2C_MASTER.c ****     uint32 retStatus;
  82              		.loc 1 1050 0
  83              		.cfi_startproc
  84              		@ args = 0, pretend = 0, frame = 0
  85              		@ frame_needed = 0, uses_anonymous_args = 0
  86              	.LVL8:
  87 0000 10B5     		push	{r4, lr}
  88              		.cfi_def_cfa_offset 8
  89              		.cfi_offset 4, -8
ARM GAS  C:\Users\tsien\AppData\Local\Temp\ccVzEi8h.s 			page 23


  90              		.cfi_offset 14, -4
  91              	.LVL9:
1054:Generated_Source\PSoC4/Jetty_I2C_MASTER.c ****     {
  92              		.loc 1 1054 0
  93 0002 0028     		cmp	r0, #0
  94 0004 39DB     		blt	.L14
1059:Generated_Source\PSoC4/Jetty_I2C_MASTER.c ****     {
  95              		.loc 1 1059 0
  96 0006 C023     		movs	r3, #192
  97 0008 0342     		tst	r3, r0
  98 000a 08D0     		beq	.L7
  99              	.LVL10:
1064:Generated_Source\PSoC4/Jetty_I2C_MASTER.c **** 
 100              		.loc 1 1064 0
 101 000c 0022     		movs	r2, #0
 102 000e 284B     		ldr	r3, .L21
 103 0010 1A60     		str	r2, [r3]
1066:Generated_Source\PSoC4/Jetty_I2C_MASTER.c ****     }
 104              		.loc 1 1066 0
 105 0012 1032     		adds	r2, r2, #16
 106 0014 274B     		ldr	r3, .L21+4
 107 0016 1A70     		strb	r2, [r3]
1052:Generated_Source\PSoC4/Jetty_I2C_MASTER.c **** 
 108              		.loc 1 1052 0
 109 0018 0023     		movs	r3, #0
1062:Generated_Source\PSoC4/Jetty_I2C_MASTER.c **** 
 110              		.loc 1 1062 0
 111 001a 1024     		movs	r4, #16
 112 001c 3DE0     		b	.L6
 113              	.LVL11:
 114              	.L7:
1068:Generated_Source\PSoC4/Jetty_I2C_MASTER.c ****     {
 115              		.loc 1 1068 0
 116 001e C307     		lsls	r3, r0, #31
 117 0020 0FD5     		bpl	.L8
 118              	.LVL12:
1072:Generated_Source\PSoC4/Jetty_I2C_MASTER.c ****         {
 119              		.loc 1 1072 0
 120 0022 244B     		ldr	r3, .L21+4
 121 0024 1B78     		ldrb	r3, [r3]
 122 0026 1B07     		lsls	r3, r3, #28
 123 0028 2BD5     		bpl	.L15
1075:Generated_Source\PSoC4/Jetty_I2C_MASTER.c ****             {
 124              		.loc 1 1075 0
 125 002a 234B     		ldr	r3, .L21+8
 126 002c 1B68     		ldr	r3, [r3]
 127 002e 5B00     		lsls	r3, r3, #1
 128 0030 01D5     		bpl	.L16
1052:Generated_Source\PSoC4/Jetty_I2C_MASTER.c **** 
 129              		.loc 1 1052 0
 130 0032 0023     		movs	r3, #0
 131 0034 00E0     		b	.L9
 132              	.L16:
1077:Generated_Source\PSoC4/Jetty_I2C_MASTER.c ****             }
 133              		.loc 1 1077 0
 134 0036 0123     		movs	r3, #1
 135              	.L9:
ARM GAS  C:\Users\tsien\AppData\Local\Temp\ccVzEi8h.s 			page 24


 136              	.LVL13:
1080:Generated_Source\PSoC4/Jetty_I2C_MASTER.c ****         }
 137              		.loc 1 1080 0
 138 0038 1021     		movs	r1, #16
 139 003a 1E4A     		ldr	r2, .L21+4
 140 003c 1170     		strb	r1, [r2]
1070:Generated_Source\PSoC4/Jetty_I2C_MASTER.c **** 
 141              		.loc 1 1070 0
 142 003e 0124     		movs	r4, #1
 143 0040 2BE0     		b	.L6
 144              	.LVL14:
 145              	.L8:
1088:Generated_Source\PSoC4/Jetty_I2C_MASTER.c ****     {
 146              		.loc 1 1088 0
 147 0042 C305     		lsls	r3, r0, #23
 148 0044 20D4     		bmi	.L17
1093:Generated_Source\PSoC4/Jetty_I2C_MASTER.c ****     {
 149              		.loc 1 1093 0
 150 0046 8307     		lsls	r3, r0, #30
 151 0048 22D4     		bmi	.L18
 152              	.LVL15:
1101:Generated_Source\PSoC4/Jetty_I2C_MASTER.c ****         {
 153              		.loc 1 1101 0
 154 004a C306     		lsls	r3, r0, #27
 155 004c 05D5     		bpl	.L10
1104:Generated_Source\PSoC4/Jetty_I2C_MASTER.c ****         }
 156              		.loc 1 1104 0
 157 004e 1022     		movs	r2, #16
 158 0050 184B     		ldr	r3, .L21+4
 159 0052 1A70     		strb	r2, [r3]
1052:Generated_Source\PSoC4/Jetty_I2C_MASTER.c **** 
 160              		.loc 1 1052 0
 161 0054 0023     		movs	r3, #0
1099:Generated_Source\PSoC4/Jetty_I2C_MASTER.c **** 
 162              		.loc 1 1099 0
 163 0056 0024     		movs	r4, #0
 164 0058 1FE0     		b	.L6
 165              	.L10:
1109:Generated_Source\PSoC4/Jetty_I2C_MASTER.c ****             {
 166              		.loc 1 1109 0
 167 005a 164B     		ldr	r3, .L21+4
 168 005c 1B78     		ldrb	r3, [r3]
 169 005e 1B07     		lsls	r3, r3, #28
 170 0060 19D5     		bpl	.L19
1112:Generated_Source\PSoC4/Jetty_I2C_MASTER.c ****                                           Jetty_I2C_FSM_MSTR_RD_DATA : Jetty_I2C_FSM_MSTR_WR_DATA;
 171              		.loc 1 1112 0
 172 0062 144B     		ldr	r3, .L21+4
 173 0064 1B78     		ldrb	r3, [r3]
 174 0066 DB07     		lsls	r3, r3, #31
 175 0068 01D5     		bpl	.L20
 176 006a 2522     		movs	r2, #37
 177 006c 00E0     		b	.L11
 178              	.L20:
 179 006e 2422     		movs	r2, #36
 180              	.L11:
1112:Generated_Source\PSoC4/Jetty_I2C_MASTER.c ****                                           Jetty_I2C_FSM_MSTR_RD_DATA : Jetty_I2C_FSM_MSTR_WR_DATA;
 181              		.loc 1 1112 0 is_stmt 0 discriminator 4
ARM GAS  C:\Users\tsien\AppData\Local\Temp\ccVzEi8h.s 			page 25


 182 0070 104B     		ldr	r3, .L21+4
 183 0072 1A70     		strb	r2, [r3]
1052:Generated_Source\PSoC4/Jetty_I2C_MASTER.c **** 
 184              		.loc 1 1052 0 is_stmt 1 discriminator 4
 185 0074 0023     		movs	r3, #0
1099:Generated_Source\PSoC4/Jetty_I2C_MASTER.c **** 
 186              		.loc 1 1099 0 discriminator 4
 187 0076 0024     		movs	r4, #0
 188 0078 0FE0     		b	.L6
 189              	.LVL16:
 190              	.L14:
1057:Generated_Source\PSoC4/Jetty_I2C_MASTER.c ****     }
 191              		.loc 1 1057 0
 192 007a 0123     		movs	r3, #1
1056:Generated_Source\PSoC4/Jetty_I2C_MASTER.c ****         resetBlock = Jetty_I2C_RESET_ERROR;
 193              		.loc 1 1056 0
 194 007c 8024     		movs	r4, #128
 195 007e 2406     		lsls	r4, r4, #24
 196 0080 0BE0     		b	.L6
 197              	.LVL17:
 198              	.L15:
1085:Generated_Source\PSoC4/Jetty_I2C_MASTER.c ****         }
 199              		.loc 1 1085 0
 200 0082 0123     		movs	r3, #1
1070:Generated_Source\PSoC4/Jetty_I2C_MASTER.c **** 
 201              		.loc 1 1070 0
 202 0084 0124     		movs	r4, #1
 203 0086 08E0     		b	.L6
 204              	.LVL18:
 205              	.L17:
1091:Generated_Source\PSoC4/Jetty_I2C_MASTER.c ****     }
 206              		.loc 1 1091 0
 207 0088 0123     		movs	r3, #1
1090:Generated_Source\PSoC4/Jetty_I2C_MASTER.c ****         resetBlock = Jetty_I2C_RESET_ERROR;
 208              		.loc 1 1090 0
 209 008a 8024     		movs	r4, #128
 210 008c 6400     		lsls	r4, r4, #1
 211 008e 04E0     		b	.L6
 212              	.L18:
1052:Generated_Source\PSoC4/Jetty_I2C_MASTER.c **** 
 213              		.loc 1 1052 0
 214 0090 0023     		movs	r3, #0
1095:Generated_Source\PSoC4/Jetty_I2C_MASTER.c ****     }
 215              		.loc 1 1095 0
 216 0092 0224     		movs	r4, #2
 217 0094 01E0     		b	.L6
 218              	.LVL19:
 219              	.L19:
1052:Generated_Source\PSoC4/Jetty_I2C_MASTER.c **** 
 220              		.loc 1 1052 0
 221 0096 0023     		movs	r3, #0
1099:Generated_Source\PSoC4/Jetty_I2C_MASTER.c **** 
 222              		.loc 1 1099 0
 223 0098 0024     		movs	r4, #0
 224              	.LVL20:
 225              	.L6:
1118:Generated_Source\PSoC4/Jetty_I2C_MASTER.c ****     {
ARM GAS  C:\Users\tsien\AppData\Local\Temp\ccVzEi8h.s 			page 26


 226              		.loc 1 1118 0
 227 009a 012B     		cmp	r3, #1
 228 009c 02D1     		bne	.L12
1120:Generated_Source\PSoC4/Jetty_I2C_MASTER.c ****     }
 229              		.loc 1 1120 0
 230 009e FFF7FEFF 		bl	Jetty_I2CFwBlockReset
 231              	.LVL21:
 232 00a2 02E0     		b	.L13
 233              	.LVL22:
 234              	.L12:
1124:Generated_Source\PSoC4/Jetty_I2C_MASTER.c ****     }
 235              		.loc 1 1124 0
 236 00a4 054A     		ldr	r2, .L21+12
 237 00a6 064B     		ldr	r3, .L21+16
 238              	.LVL23:
 239 00a8 1A60     		str	r2, [r3]
 240              	.LVL24:
 241              	.L13:
1128:Generated_Source\PSoC4/Jetty_I2C_MASTER.c **** 
 242              		.loc 1 1128 0
 243 00aa 2000     		movs	r0, r4
 244              		@ sp needed
 245              	.LVL25:
 246 00ac 10BD     		pop	{r4, pc}
 247              	.L22:
 248 00ae C046     		.align	2
 249              	.L21:
 250 00b0 68000640 		.word	1074135144
 251 00b4 00000000 		.word	Jetty_state
 252 00b8 60000640 		.word	1074135136
 253 00bc 17030000 		.word	791
 254 00c0 000F0640 		.word	1074138880
 255              		.cfi_endproc
 256              	.LFE14:
 257              		.size	Jetty_I2CMasterHandleStatus, .-Jetty_I2CMasterHandleStatus
 258              		.section	.text.Jetty_I2CMasterSendStart,"ax",%progbits
 259              		.align	2
 260              		.global	Jetty_I2CMasterSendStart
 261              		.code	16
 262              		.thumb_func
 263              		.type	Jetty_I2CMasterSendStart, %function
 264              	Jetty_I2CMasterSendStart:
 265              	.LFB2:
 346:Generated_Source\PSoC4/Jetty_I2C_MASTER.c ****     uint32 errStatus = Jetty_I2C_MSTR_NOT_READY;
 266              		.loc 1 346 0
 267              		.cfi_startproc
 268              		@ args = 0, pretend = 0, frame = 8
 269              		@ frame_needed = 0, uses_anonymous_args = 0
 270              	.LVL26:
 271 0000 70B5     		push	{r4, r5, r6, lr}
 272              		.cfi_def_cfa_offset 16
 273              		.cfi_offset 4, -16
 274              		.cfi_offset 5, -12
 275              		.cfi_offset 6, -8
 276              		.cfi_offset 14, -4
 277 0002 82B0     		sub	sp, sp, #8
 278              		.cfi_def_cfa_offset 24
ARM GAS  C:\Users\tsien\AppData\Local\Temp\ccVzEi8h.s 			page 27


 279 0004 0400     		movs	r4, r0
 280 0006 0D00     		movs	r5, r1
 281 0008 1600     		movs	r6, r2
 282              	.LVL27:
 349:Generated_Source\PSoC4/Jetty_I2C_MASTER.c ****     {
 283              		.loc 1 349 0
 284 000a 244B     		ldr	r3, .L31
 285 000c 1B78     		ldrb	r3, [r3]
 286 000e 102B     		cmp	r3, #16
 287 0010 40D1     		bne	.L29
 351:Generated_Source\PSoC4/Jetty_I2C_MASTER.c **** 
 288              		.loc 1 351 0
 289 0012 0A20     		movs	r0, #10
 290              	.LVL28:
 291 0014 FFF7FEFF 		bl	CyIntDisable
 292              	.LVL29:
 353:Generated_Source\PSoC4/Jetty_I2C_MASTER.c ****         {
 293              		.loc 1 353 0
 294 0018 214B     		ldr	r3, .L31+4
 295 001a 1B68     		ldr	r3, [r3]
 296 001c DB07     		lsls	r3, r3, #31
 297 001e 34D4     		bmi	.L30
 298              	.LBB2:
 360:Generated_Source\PSoC4/Jetty_I2C_MASTER.c **** 
 299              		.loc 1 360 0
 300 0020 FA23     		movs	r3, #250
 301 0022 9B00     		lsls	r3, r3, #2
 302 0024 5E43     		muls	r6, r3
 303              	.LVL30:
 304 0026 0196     		str	r6, [sp, #4]
 366:Generated_Source\PSoC4/Jetty_I2C_MASTER.c ****             Jetty_ClearMasterInterruptSource(Jetty_INTR_MASTER_ALL);
 305              		.loc 1 366 0
 306 0028 0022     		movs	r2, #0
 307 002a 1E4B     		ldr	r3, .L31+8
 308 002c 1A60     		str	r2, [r3]
 367:Generated_Source\PSoC4/Jetty_I2C_MASTER.c ****             Jetty_ClearRxInterruptSource    (Jetty_INTR_RX_ALL);
 309              		.loc 1 367 0
 310 002e 1E4A     		ldr	r2, .L31+12
 311 0030 1E4B     		ldr	r3, .L31+16
 312 0032 1A60     		str	r2, [r3]
 368:Generated_Source\PSoC4/Jetty_I2C_MASTER.c **** 
 313              		.loc 1 368 0
 314 0034 1E4A     		ldr	r2, .L31+20
 315 0036 1F4B     		ldr	r3, .L31+24
 316 0038 1A60     		str	r2, [r3]
 370:Generated_Source\PSoC4/Jetty_I2C_MASTER.c **** 
 317              		.loc 1 370 0
 318 003a 6400     		lsls	r4, r4, #1
 319              	.LVL31:
 320 003c FF23     		movs	r3, #255
 321 003e 1C40     		ands	r4, r3
 322              	.LVL32:
 372:Generated_Source\PSoC4/Jetty_I2C_MASTER.c ****             {
 323              		.loc 1 372 0
 324 0040 002D     		cmp	r5, #0
 325 0042 03D1     		bne	.L26
 374:Generated_Source\PSoC4/Jetty_I2C_MASTER.c ****             }
ARM GAS  C:\Users\tsien\AppData\Local\Temp\ccVzEi8h.s 			page 28


 326              		.loc 1 374 0
 327 0044 2422     		movs	r2, #36
 328 0046 154B     		ldr	r3, .L31
 329 0048 1A70     		strb	r2, [r3]
 330 004a 04E0     		b	.L27
 331              	.L26:
 378:Generated_Source\PSoC4/Jetty_I2C_MASTER.c ****                          slaveAddress |= Jetty_I2C_READ_FLAG;
 332              		.loc 1 378 0
 333 004c 2522     		movs	r2, #37
 334 004e 134B     		ldr	r3, .L31
 335 0050 1A70     		strb	r2, [r3]
 379:Generated_Source\PSoC4/Jetty_I2C_MASTER.c ****             }
 336              		.loc 1 379 0
 337 0052 0123     		movs	r3, #1
 338 0054 1C43     		orrs	r4, r3
 339              	.LVL33:
 340              	.L27:
 385:Generated_Source\PSoC4/Jetty_I2C_MASTER.c ****             Jetty_I2C_MASTER_GENERATE_START;
 341              		.loc 1 385 0
 342 0056 184B     		ldr	r3, .L31+28
 343 0058 1C60     		str	r4, [r3]
 386:Generated_Source\PSoC4/Jetty_I2C_MASTER.c **** 
 344              		.loc 1 386 0
 345 005a 0222     		movs	r2, #2
 346 005c 174B     		ldr	r3, .L31+32
 347 005e 1A60     		str	r2, [r3]
 348              	.LVL34:
 349              	.L28:
 391:Generated_Source\PSoC4/Jetty_I2C_MASTER.c ****                 locStatus |= Jetty_GetSlaveInterruptSource() & Jetty_SLAVE_INTR_I2C_ADDR;
 350              		.loc 1 391 0 discriminator 1
 351 0060 124B     		ldr	r3, .L31+16
 352 0062 1C68     		ldr	r4, [r3]
 353 0064 0823     		movs	r3, #8
 354 0066 FF33     		adds	r3, r3, #255
 355 0068 2000     		movs	r0, r4
 356 006a 1840     		ands	r0, r3
 357              	.LVL35:
 392:Generated_Source\PSoC4/Jetty_I2C_MASTER.c ****                 locStatus |= Jetty_I2CMasterWaitOneUnit(&timeout);
 358              		.loc 1 392 0 discriminator 1
 359 006c 144B     		ldr	r3, .L31+36
 360 006e 1B68     		ldr	r3, [r3]
 361 0070 C024     		movs	r4, #192
 362 0072 2340     		ands	r3, r4
 363 0074 1843     		orrs	r0, r3
 364              	.LVL36:
 365 0076 0400     		movs	r4, r0
 366              	.LVL37:
 393:Generated_Source\PSoC4/Jetty_I2C_MASTER.c ****             }
 367              		.loc 1 393 0 discriminator 1
 368 0078 01A8     		add	r0, sp, #4
 369              	.LVL38:
 370 007a FFF7FEFF 		bl	Jetty_I2CMasterWaitOneUnit
 371              	.LVL39:
 372 007e 2043     		orrs	r0, r4
 373              	.LVL40:
 395:Generated_Source\PSoC4/Jetty_I2C_MASTER.c **** 
 374              		.loc 1 395 0 discriminator 1
ARM GAS  C:\Users\tsien\AppData\Local\Temp\ccVzEi8h.s 			page 29


 375 0080 EED0     		beq	.L28
 398:Generated_Source\PSoC4/Jetty_I2C_MASTER.c ****         }
 376              		.loc 1 398 0
 377 0082 FFF7FEFF 		bl	Jetty_I2CMasterHandleStatus
 378              	.LVL41:
 379 0086 0400     		movs	r4, r0
 380              	.LVL42:
 381 0088 00E0     		b	.L25
 382              	.LVL43:
 383              	.L30:
 384              	.LBE2:
 355:Generated_Source\PSoC4/Jetty_I2C_MASTER.c ****         }
 385              		.loc 1 355 0
 386 008a 0824     		movs	r4, #8
 387              	.LVL44:
 388              	.L25:
 401:Generated_Source\PSoC4/Jetty_I2C_MASTER.c ****     }
 389              		.loc 1 401 0
 390 008c 0A20     		movs	r0, #10
 391 008e FFF7FEFF 		bl	CyIntEnable
 392              	.LVL45:
 393 0092 00E0     		b	.L24
 394              	.LVL46:
 395              	.L29:
 347:Generated_Source\PSoC4/Jetty_I2C_MASTER.c **** 
 396              		.loc 1 347 0
 397 0094 0424     		movs	r4, #4
 398              	.LVL47:
 399              	.L24:
 405:Generated_Source\PSoC4/Jetty_I2C_MASTER.c **** 
 400              		.loc 1 405 0
 401 0096 2000     		movs	r0, r4
 402 0098 02B0     		add	sp, sp, #8
 403              		@ sp needed
 404              	.LVL48:
 405              	.LVL49:
 406 009a 70BD     		pop	{r4, r5, r6, pc}
 407              	.L32:
 408              		.align	2
 409              	.L31:
 410 009c 00000000 		.word	Jetty_state
 411 00a0 64000640 		.word	1074135140
 412 00a4 080F0640 		.word	1074138888
 413 00a8 17030000 		.word	791
 414 00ac 000F0640 		.word	1074138880
 415 00b0 ED0F0000 		.word	4077
 416 00b4 C00F0640 		.word	1074139072
 417 00b8 40020640 		.word	1074135616
 418 00bc 68000640 		.word	1074135144
 419 00c0 400F0640 		.word	1074138944
 420              		.cfi_endproc
 421              	.LFE2:
 422              		.size	Jetty_I2CMasterSendStart, .-Jetty_I2CMasterSendStart
 423              		.section	.text.Jetty_I2CMasterSendStop,"ax",%progbits
 424              		.align	2
 425              		.global	Jetty_I2CMasterSendStop
 426              		.code	16
ARM GAS  C:\Users\tsien\AppData\Local\Temp\ccVzEi8h.s 			page 30


 427              		.thumb_func
 428              		.type	Jetty_I2CMasterSendStop, %function
 429              	Jetty_I2CMasterSendStop:
 430              	.LFB4:
 524:Generated_Source\PSoC4/Jetty_I2C_MASTER.c ****     uint32 errStatus = Jetty_I2C_MSTR_NOT_READY;
 431              		.loc 1 524 0
 432              		.cfi_startproc
 433              		@ args = 0, pretend = 0, frame = 8
 434              		@ frame_needed = 0, uses_anonymous_args = 0
 435              	.LVL50:
 436 0000 10B5     		push	{r4, lr}
 437              		.cfi_def_cfa_offset 8
 438              		.cfi_offset 4, -8
 439              		.cfi_offset 14, -4
 440 0002 82B0     		sub	sp, sp, #8
 441              		.cfi_def_cfa_offset 16
 442              	.LVL51:
 528:Generated_Source\PSoC4/Jetty_I2C_MASTER.c ****     {
 443              		.loc 1 528 0
 444 0004 104B     		ldr	r3, .L39
 445 0006 1B78     		ldrb	r3, [r3]
 446 0008 9B06     		lsls	r3, r3, #26
 447 000a 1AD5     		bpl	.L37
 448              	.LBB3:
 531:Generated_Source\PSoC4/Jetty_I2C_MASTER.c **** 
 449              		.loc 1 531 0
 450 000c FA23     		movs	r3, #250
 451 000e 9B00     		lsls	r3, r3, #2
 452 0010 5843     		muls	r0, r3
 453              	.LVL52:
 454 0012 0190     		str	r0, [sp, #4]
 534:Generated_Source\PSoC4/Jetty_I2C_MASTER.c **** 
 455              		.loc 1 534 0
 456 0014 0D4B     		ldr	r3, .L39+4
 457 0016 1B68     		ldr	r3, [r3]
 458 0018 9B06     		lsls	r3, r3, #26
 459 001a 01D5     		bpl	.L38
 460 001c 1822     		movs	r2, #24
 461 001e 00E0     		b	.L35
 462              	.L38:
 463 0020 1022     		movs	r2, #16
 464              	.L35:
 534:Generated_Source\PSoC4/Jetty_I2C_MASTER.c **** 
 465              		.loc 1 534 0 is_stmt 0 discriminator 4
 466 0022 0B4B     		ldr	r3, .L39+8
 467 0024 1A60     		str	r2, [r3]
 468              	.L36:
 539:Generated_Source\PSoC4/Jetty_I2C_MASTER.c ****             locStatus |= Jetty_I2CMasterWaitOneUnit(&timeout);
 469              		.loc 1 539 0 is_stmt 1 discriminator 1
 470 0026 0B4B     		ldr	r3, .L39+12
 471 0028 1868     		ldr	r0, [r3]
 472 002a 1223     		movs	r3, #18
 473 002c FF33     		adds	r3, r3, #255
 474 002e 1840     		ands	r0, r3
 475 0030 0400     		movs	r4, r0
 476              	.LVL53:
 540:Generated_Source\PSoC4/Jetty_I2C_MASTER.c ****         }
ARM GAS  C:\Users\tsien\AppData\Local\Temp\ccVzEi8h.s 			page 31


 477              		.loc 1 540 0 discriminator 1
 478 0032 01A8     		add	r0, sp, #4
 479              	.LVL54:
 480 0034 FFF7FEFF 		bl	Jetty_I2CMasterWaitOneUnit
 481              	.LVL55:
 482 0038 2043     		orrs	r0, r4
 483              	.LVL56:
 542:Generated_Source\PSoC4/Jetty_I2C_MASTER.c **** 
 484              		.loc 1 542 0 discriminator 1
 485 003a F4D0     		beq	.L36
 545:Generated_Source\PSoC4/Jetty_I2C_MASTER.c ****     }
 486              		.loc 1 545 0
 487 003c FFF7FEFF 		bl	Jetty_I2CMasterHandleStatus
 488              	.LVL57:
 489 0040 00E0     		b	.L34
 490              	.LVL58:
 491              	.L37:
 492              	.LBE3:
 525:Generated_Source\PSoC4/Jetty_I2C_MASTER.c **** 
 493              		.loc 1 525 0
 494 0042 0420     		movs	r0, #4
 495              	.LVL59:
 496              	.L34:
 549:Generated_Source\PSoC4/Jetty_I2C_MASTER.c **** 
 497              		.loc 1 549 0
 498 0044 02B0     		add	sp, sp, #8
 499              		@ sp needed
 500 0046 10BD     		pop	{r4, pc}
 501              	.L40:
 502              		.align	2
 503              	.L39:
 504 0048 00000000 		.word	Jetty_state
 505 004c 64000640 		.word	1074135140
 506 0050 68000640 		.word	1074135144
 507 0054 000F0640 		.word	1074138880
 508              		.cfi_endproc
 509              	.LFE4:
 510              		.size	Jetty_I2CMasterSendStop, .-Jetty_I2CMasterSendStop
 511              		.section	.text.Jetty_I2CMasterWriteByte,"ax",%progbits
 512              		.align	2
 513              		.global	Jetty_I2CMasterWriteByte
 514              		.code	16
 515              		.thumb_func
 516              		.type	Jetty_I2CMasterWriteByte, %function
 517              	Jetty_I2CMasterWriteByte:
 518              	.LFB5:
 583:Generated_Source\PSoC4/Jetty_I2C_MASTER.c ****     uint32 errStatus = Jetty_I2C_MSTR_NOT_READY;
 519              		.loc 1 583 0
 520              		.cfi_startproc
 521              		@ args = 0, pretend = 0, frame = 8
 522              		@ frame_needed = 0, uses_anonymous_args = 0
 523              	.LVL60:
 524 0000 10B5     		push	{r4, lr}
 525              		.cfi_def_cfa_offset 8
 526              		.cfi_offset 4, -8
 527              		.cfi_offset 14, -4
 528 0002 82B0     		sub	sp, sp, #8
ARM GAS  C:\Users\tsien\AppData\Local\Temp\ccVzEi8h.s 			page 32


 529              		.cfi_def_cfa_offset 16
 530              	.LVL61:
 587:Generated_Source\PSoC4/Jetty_I2C_MASTER.c ****     {
 531              		.loc 1 587 0
 532 0004 0D4B     		ldr	r3, .L45
 533 0006 1B78     		ldrb	r3, [r3]
 534 0008 9B06     		lsls	r3, r3, #26
 535 000a 13D5     		bpl	.L44
 536              	.LBB4:
 590:Generated_Source\PSoC4/Jetty_I2C_MASTER.c **** 
 537              		.loc 1 590 0
 538 000c FA23     		movs	r3, #250
 539 000e 9B00     		lsls	r3, r3, #2
 540 0010 5943     		muls	r1, r3
 541              	.LVL62:
 542 0012 0191     		str	r1, [sp, #4]
 592:Generated_Source\PSoC4/Jetty_I2C_MASTER.c **** 
 543              		.loc 1 592 0
 544 0014 0A4B     		ldr	r3, .L45+4
 545 0016 1860     		str	r0, [r3]
 546              	.LVL63:
 547              	.L43:
 597:Generated_Source\PSoC4/Jetty_I2C_MASTER.c ****             locStatus |= Jetty_I2CMasterWaitOneUnit(&timeout);
 548              		.loc 1 597 0 discriminator 1
 549 0018 0A4B     		ldr	r3, .L45+8
 550 001a 1868     		ldr	r0, [r3]
 551 001c 0823     		movs	r3, #8
 552 001e FF33     		adds	r3, r3, #255
 553 0020 1840     		ands	r0, r3
 554 0022 0400     		movs	r4, r0
 555              	.LVL64:
 598:Generated_Source\PSoC4/Jetty_I2C_MASTER.c ****         }
 556              		.loc 1 598 0 discriminator 1
 557 0024 01A8     		add	r0, sp, #4
 558              	.LVL65:
 559 0026 FFF7FEFF 		bl	Jetty_I2CMasterWaitOneUnit
 560              	.LVL66:
 561 002a 2043     		orrs	r0, r4
 562              	.LVL67:
 600:Generated_Source\PSoC4/Jetty_I2C_MASTER.c **** 
 563              		.loc 1 600 0 discriminator 1
 564 002c F4D0     		beq	.L43
 603:Generated_Source\PSoC4/Jetty_I2C_MASTER.c ****     }
 565              		.loc 1 603 0
 566 002e FFF7FEFF 		bl	Jetty_I2CMasterHandleStatus
 567              	.LVL68:
 568 0032 00E0     		b	.L42
 569              	.LVL69:
 570              	.L44:
 571              	.LBE4:
 584:Generated_Source\PSoC4/Jetty_I2C_MASTER.c **** 
 572              		.loc 1 584 0
 573 0034 0420     		movs	r0, #4
 574              	.LVL70:
 575              	.L42:
 607:Generated_Source\PSoC4/Jetty_I2C_MASTER.c **** 
 576              		.loc 1 607 0
ARM GAS  C:\Users\tsien\AppData\Local\Temp\ccVzEi8h.s 			page 33


 577 0036 02B0     		add	sp, sp, #8
 578              		@ sp needed
 579 0038 10BD     		pop	{r4, pc}
 580              	.L46:
 581 003a C046     		.align	2
 582              	.L45:
 583 003c 00000000 		.word	Jetty_state
 584 0040 40020640 		.word	1074135616
 585 0044 000F0640 		.word	1074138880
 586              		.cfi_endproc
 587              	.LFE5:
 588              		.size	Jetty_I2CMasterWriteByte, .-Jetty_I2CMasterWriteByte
 589              		.section	.text.Jetty_I2CMasterReadByte,"ax",%progbits
 590              		.align	2
 591              		.global	Jetty_I2CMasterReadByte
 592              		.code	16
 593              		.thumb_func
 594              		.type	Jetty_I2CMasterReadByte, %function
 595              	Jetty_I2CMasterReadByte:
 596              	.LFB6:
 654:Generated_Source\PSoC4/Jetty_I2C_MASTER.c ****     uint32 errStatus = Jetty_I2C_MSTR_NOT_READY;
 597              		.loc 1 654 0
 598              		.cfi_startproc
 599              		@ args = 0, pretend = 0, frame = 8
 600              		@ frame_needed = 0, uses_anonymous_args = 0
 601              	.LVL71:
 602 0000 F0B5     		push	{r4, r5, r6, r7, lr}
 603              		.cfi_def_cfa_offset 20
 604              		.cfi_offset 4, -20
 605              		.cfi_offset 5, -16
 606              		.cfi_offset 6, -12
 607              		.cfi_offset 7, -8
 608              		.cfi_offset 14, -4
 609 0002 83B0     		sub	sp, sp, #12
 610              		.cfi_def_cfa_offset 32
 611 0004 0400     		movs	r4, r0
 612 0006 0D00     		movs	r5, r1
 613              	.LVL72:
 658:Generated_Source\PSoC4/Jetty_I2C_MASTER.c ****     {
 614              		.loc 1 658 0
 615 0008 164B     		ldr	r3, .L53
 616 000a 1B78     		ldrb	r3, [r3]
 617 000c 9B06     		lsls	r3, r3, #26
 618 000e 26D5     		bpl	.L52
 619              	.LBB5:
 662:Generated_Source\PSoC4/Jetty_I2C_MASTER.c **** 
 620              		.loc 1 662 0
 621 0010 FA23     		movs	r3, #250
 622 0012 9B00     		lsls	r3, r3, #2
 623 0014 5A43     		muls	r2, r3
 624              	.LVL73:
 625 0016 0192     		str	r2, [sp, #4]
 626              	.LVL74:
 627              	.L49:
 667:Generated_Source\PSoC4/Jetty_I2C_MASTER.c ****             rxNotEmpty = Jetty_GetRxInterruptSource() & Jetty_INTR_RX_NOT_EMPTY;
 628              		.loc 1 667 0 discriminator 1
 629 0018 134B     		ldr	r3, .L53+4
ARM GAS  C:\Users\tsien\AppData\Local\Temp\ccVzEi8h.s 			page 34


 630 001a 1868     		ldr	r0, [r3]
 631 001c 0223     		movs	r3, #2
 632 001e FF33     		adds	r3, r3, #255
 633 0020 1840     		ands	r0, r3
 634 0022 0700     		movs	r7, r0
 635              	.LVL75:
 668:Generated_Source\PSoC4/Jetty_I2C_MASTER.c ****             locStatus |= Jetty_I2CMasterWaitOneUnit(&timeout);
 636              		.loc 1 668 0 discriminator 1
 637 0024 114B     		ldr	r3, .L53+8
 638 0026 1B68     		ldr	r3, [r3]
 639 0028 0426     		movs	r6, #4
 640 002a 1E40     		ands	r6, r3
 641              	.LVL76:
 669:Generated_Source\PSoC4/Jetty_I2C_MASTER.c ****         }
 642              		.loc 1 669 0 discriminator 1
 643 002c 01A8     		add	r0, sp, #4
 644              	.LVL77:
 645 002e FFF7FEFF 		bl	Jetty_I2CMasterWaitOneUnit
 646              	.LVL78:
 647 0032 3843     		orrs	r0, r7
 648              	.LVL79:
 671:Generated_Source\PSoC4/Jetty_I2C_MASTER.c **** 
 649              		.loc 1 671 0 discriminator 1
 650 0034 3300     		movs	r3, r6
 651 0036 0343     		orrs	r3, r0
 652 0038 EED0     		beq	.L49
 674:Generated_Source\PSoC4/Jetty_I2C_MASTER.c ****         {
 653              		.loc 1 674 0
 654 003a 002E     		cmp	r6, #0
 655 003c 05D0     		beq	.L50
 676:Generated_Source\PSoC4/Jetty_I2C_MASTER.c ****             Jetty_ClearRxInterruptSource(Jetty_INTR_RX_ALL);
 656              		.loc 1 676 0
 657 003e 0C4B     		ldr	r3, .L53+12
 658 0040 1B68     		ldr	r3, [r3]
 659 0042 2B70     		strb	r3, [r5]
 677:Generated_Source\PSoC4/Jetty_I2C_MASTER.c ****         }
 660              		.loc 1 677 0
 661 0044 0B4A     		ldr	r2, .L53+16
 662 0046 094B     		ldr	r3, .L53+8
 663 0048 1A60     		str	r2, [r3]
 664              	.L50:
 681:Generated_Source\PSoC4/Jetty_I2C_MASTER.c **** 
 665              		.loc 1 681 0
 666 004a FFF7FEFF 		bl	Jetty_I2CMasterHandleStatus
 667              	.LVL80:
 683:Generated_Source\PSoC4/Jetty_I2C_MASTER.c ****         {
 668              		.loc 1 683 0
 669 004e 0028     		cmp	r0, #0
 670 0050 06D1     		bne	.L48
 685:Generated_Source\PSoC4/Jetty_I2C_MASTER.c ****             {
 671              		.loc 1 685 0
 672 0052 002C     		cmp	r4, #0
 673 0054 04D1     		bne	.L48
 687:Generated_Source\PSoC4/Jetty_I2C_MASTER.c ****             }
 674              		.loc 1 687 0
 675 0056 0422     		movs	r2, #4
 676 0058 074B     		ldr	r3, .L53+20
ARM GAS  C:\Users\tsien\AppData\Local\Temp\ccVzEi8h.s 			page 35


 677 005a 1A60     		str	r2, [r3]
 678 005c 00E0     		b	.L48
 679              	.LVL81:
 680              	.L52:
 681              	.LBE5:
 655:Generated_Source\PSoC4/Jetty_I2C_MASTER.c **** 
 682              		.loc 1 655 0
 683 005e 0420     		movs	r0, #4
 684              	.LVL82:
 685              	.L48:
 697:Generated_Source\PSoC4/Jetty_I2C_MASTER.c **** 
 686              		.loc 1 697 0
 687 0060 03B0     		add	sp, sp, #12
 688              		@ sp needed
 689              	.LVL83:
 690              	.LVL84:
 691 0062 F0BD     		pop	{r4, r5, r6, r7, pc}
 692              	.L54:
 693              		.align	2
 694              	.L53:
 695 0064 00000000 		.word	Jetty_state
 696 0068 000F0640 		.word	1074138880
 697 006c C00F0640 		.word	1074139072
 698 0070 40030640 		.word	1074135872
 699 0074 ED0F0000 		.word	4077
 700 0078 68000640 		.word	1074135144
 701              		.cfi_endproc
 702              	.LFE6:
 703              		.size	Jetty_I2CMasterReadByte, .-Jetty_I2CMasterReadByte
 704              		.section	.text.Jetty_I2CMasterGetReadBufSize,"ax",%progbits
 705              		.align	2
 706              		.global	Jetty_I2CMasterGetReadBufSize
 707              		.code	16
 708              		.thumb_func
 709              		.type	Jetty_I2CMasterGetReadBufSize, %function
 710              	Jetty_I2CMasterGetReadBufSize:
 711              	.LFB7:
 722:Generated_Source\PSoC4/Jetty_I2C_MASTER.c ****     return(Jetty_mstrRdBufIndex);
 712              		.loc 1 722 0
 713              		.cfi_startproc
 714              		@ args = 0, pretend = 0, frame = 0
 715              		@ frame_needed = 0, uses_anonymous_args = 0
 716              		@ link register save eliminated.
 723:Generated_Source\PSoC4/Jetty_I2C_MASTER.c **** }
 717              		.loc 1 723 0
 718 0000 014B     		ldr	r3, .L56
 719 0002 1868     		ldr	r0, [r3]
 724:Generated_Source\PSoC4/Jetty_I2C_MASTER.c **** 
 720              		.loc 1 724 0
 721              		@ sp needed
 722 0004 7047     		bx	lr
 723              	.L57:
 724 0006 C046     		.align	2
 725              	.L56:
 726 0008 00000000 		.word	Jetty_mstrRdBufIndex
 727              		.cfi_endproc
 728              	.LFE7:
ARM GAS  C:\Users\tsien\AppData\Local\Temp\ccVzEi8h.s 			page 36


 729              		.size	Jetty_I2CMasterGetReadBufSize, .-Jetty_I2CMasterGetReadBufSize
 730              		.section	.text.Jetty_I2CMasterGetWriteBufSize,"ax",%progbits
 731              		.align	2
 732              		.global	Jetty_I2CMasterGetWriteBufSize
 733              		.code	16
 734              		.thumb_func
 735              		.type	Jetty_I2CMasterGetWriteBufSize, %function
 736              	Jetty_I2CMasterGetWriteBufSize:
 737              	.LFB8:
 749:Generated_Source\PSoC4/Jetty_I2C_MASTER.c ****     return(Jetty_mstrWrBufIndex);
 738              		.loc 1 749 0
 739              		.cfi_startproc
 740              		@ args = 0, pretend = 0, frame = 0
 741              		@ frame_needed = 0, uses_anonymous_args = 0
 742              		@ link register save eliminated.
 750:Generated_Source\PSoC4/Jetty_I2C_MASTER.c **** }
 743              		.loc 1 750 0
 744 0000 014B     		ldr	r3, .L59
 745 0002 1868     		ldr	r0, [r3]
 751:Generated_Source\PSoC4/Jetty_I2C_MASTER.c **** 
 746              		.loc 1 751 0
 747              		@ sp needed
 748 0004 7047     		bx	lr
 749              	.L60:
 750 0006 C046     		.align	2
 751              	.L59:
 752 0008 00000000 		.word	Jetty_mstrWrBufIndex
 753              		.cfi_endproc
 754              	.LFE8:
 755              		.size	Jetty_I2CMasterGetWriteBufSize, .-Jetty_I2CMasterGetWriteBufSize
 756              		.section	.text.Jetty_I2CMasterClearReadBuf,"ax",%progbits
 757              		.align	2
 758              		.global	Jetty_I2CMasterClearReadBuf
 759              		.code	16
 760              		.thumb_func
 761              		.type	Jetty_I2CMasterClearReadBuf, %function
 762              	Jetty_I2CMasterClearReadBuf:
 763              	.LFB9:
 767:Generated_Source\PSoC4/Jetty_I2C_MASTER.c ****     Jetty_DisableInt();  /* Lock from interruption */
 764              		.loc 1 767 0
 765              		.cfi_startproc
 766              		@ args = 0, pretend = 0, frame = 0
 767              		@ frame_needed = 0, uses_anonymous_args = 0
 768 0000 10B5     		push	{r4, lr}
 769              		.cfi_def_cfa_offset 8
 770              		.cfi_offset 4, -8
 771              		.cfi_offset 14, -4
 768:Generated_Source\PSoC4/Jetty_I2C_MASTER.c **** 
 772              		.loc 1 768 0
 773 0002 0A20     		movs	r0, #10
 774 0004 FFF7FEFF 		bl	CyIntDisable
 775              	.LVL85:
 770:Generated_Source\PSoC4/Jetty_I2C_MASTER.c ****     Jetty_mstrStatus    &= (uint16) ~Jetty_I2C_MSTAT_RD_CMPLT;
 776              		.loc 1 770 0
 777 0008 0022     		movs	r2, #0
 778 000a 054B     		ldr	r3, .L62
 779 000c 1A60     		str	r2, [r3]
ARM GAS  C:\Users\tsien\AppData\Local\Temp\ccVzEi8h.s 			page 37


 771:Generated_Source\PSoC4/Jetty_I2C_MASTER.c **** 
 780              		.loc 1 771 0
 781 000e 054A     		ldr	r2, .L62+4
 782 0010 1388     		ldrh	r3, [r2]
 783 0012 0121     		movs	r1, #1
 784 0014 8B43     		bics	r3, r1
 785 0016 1380     		strh	r3, [r2]
 773:Generated_Source\PSoC4/Jetty_I2C_MASTER.c **** }
 786              		.loc 1 773 0
 787 0018 0A20     		movs	r0, #10
 788 001a FFF7FEFF 		bl	CyIntEnable
 789              	.LVL86:
 774:Generated_Source\PSoC4/Jetty_I2C_MASTER.c **** 
 790              		.loc 1 774 0
 791              		@ sp needed
 792 001e 10BD     		pop	{r4, pc}
 793              	.L63:
 794              		.align	2
 795              	.L62:
 796 0020 00000000 		.word	Jetty_mstrRdBufIndex
 797 0024 00000000 		.word	Jetty_mstrStatus
 798              		.cfi_endproc
 799              	.LFE9:
 800              		.size	Jetty_I2CMasterClearReadBuf, .-Jetty_I2CMasterClearReadBuf
 801              		.section	.text.Jetty_I2CMasterClearWriteBuf,"ax",%progbits
 802              		.align	2
 803              		.global	Jetty_I2CMasterClearWriteBuf
 804              		.code	16
 805              		.thumb_func
 806              		.type	Jetty_I2CMasterClearWriteBuf, %function
 807              	Jetty_I2CMasterClearWriteBuf:
 808              	.LFB10:
 790:Generated_Source\PSoC4/Jetty_I2C_MASTER.c ****     Jetty_DisableInt();  /* Lock from interruption */
 809              		.loc 1 790 0
 810              		.cfi_startproc
 811              		@ args = 0, pretend = 0, frame = 0
 812              		@ frame_needed = 0, uses_anonymous_args = 0
 813 0000 10B5     		push	{r4, lr}
 814              		.cfi_def_cfa_offset 8
 815              		.cfi_offset 4, -8
 816              		.cfi_offset 14, -4
 791:Generated_Source\PSoC4/Jetty_I2C_MASTER.c **** 
 817              		.loc 1 791 0
 818 0002 0A20     		movs	r0, #10
 819 0004 FFF7FEFF 		bl	CyIntDisable
 820              	.LVL87:
 793:Generated_Source\PSoC4/Jetty_I2C_MASTER.c ****     Jetty_mstrStatus    &= (uint16) ~Jetty_I2C_MSTAT_WR_CMPLT;
 821              		.loc 1 793 0
 822 0008 0022     		movs	r2, #0
 823 000a 054B     		ldr	r3, .L65
 824 000c 1A60     		str	r2, [r3]
 794:Generated_Source\PSoC4/Jetty_I2C_MASTER.c **** 
 825              		.loc 1 794 0
 826 000e 054A     		ldr	r2, .L65+4
 827 0010 1388     		ldrh	r3, [r2]
 828 0012 0221     		movs	r1, #2
 829 0014 8B43     		bics	r3, r1
ARM GAS  C:\Users\tsien\AppData\Local\Temp\ccVzEi8h.s 			page 38


 830 0016 1380     		strh	r3, [r2]
 796:Generated_Source\PSoC4/Jetty_I2C_MASTER.c **** }
 831              		.loc 1 796 0
 832 0018 0A20     		movs	r0, #10
 833 001a FFF7FEFF 		bl	CyIntEnable
 834              	.LVL88:
 797:Generated_Source\PSoC4/Jetty_I2C_MASTER.c **** 
 835              		.loc 1 797 0
 836              		@ sp needed
 837 001e 10BD     		pop	{r4, pc}
 838              	.L66:
 839              		.align	2
 840              	.L65:
 841 0020 00000000 		.word	Jetty_mstrWrBufIndex
 842 0024 00000000 		.word	Jetty_mstrStatus
 843              		.cfi_endproc
 844              	.LFE10:
 845              		.size	Jetty_I2CMasterClearWriteBuf, .-Jetty_I2CMasterClearWriteBuf
 846              		.section	.text.Jetty_I2CMasterStatus,"ax",%progbits
 847              		.align	2
 848              		.global	Jetty_I2CMasterStatus
 849              		.code	16
 850              		.thumb_func
 851              		.type	Jetty_I2CMasterStatus, %function
 852              	Jetty_I2CMasterStatus:
 853              	.LFB11:
 842:Generated_Source\PSoC4/Jetty_I2C_MASTER.c ****     uint32 status;
 854              		.loc 1 842 0
 855              		.cfi_startproc
 856              		@ args = 0, pretend = 0, frame = 0
 857              		@ frame_needed = 0, uses_anonymous_args = 0
 858 0000 10B5     		push	{r4, lr}
 859              		.cfi_def_cfa_offset 8
 860              		.cfi_offset 4, -8
 861              		.cfi_offset 14, -4
 845:Generated_Source\PSoC4/Jetty_I2C_MASTER.c **** 
 862              		.loc 1 845 0
 863 0002 0A20     		movs	r0, #10
 864 0004 FFF7FEFF 		bl	CyIntDisable
 865              	.LVL89:
 847:Generated_Source\PSoC4/Jetty_I2C_MASTER.c **** 
 866              		.loc 1 847 0
 867 0008 074B     		ldr	r3, .L69
 868 000a 1C88     		ldrh	r4, [r3]
 869 000c A2B2     		uxth	r2, r4
 870 000e 1400     		movs	r4, r2
 871              	.LVL90:
 849:Generated_Source\PSoC4/Jetty_I2C_MASTER.c ****     {
 872              		.loc 1 849 0
 873 0010 064B     		ldr	r3, .L69+4
 874 0012 1B78     		ldrb	r3, [r3]
 875 0014 9B06     		lsls	r3, r3, #26
 876 0016 02D5     		bpl	.L68
 852:Generated_Source\PSoC4/Jetty_I2C_MASTER.c ****     }
 877              		.loc 1 852 0
 878 0018 0423     		movs	r3, #4
 879 001a 1A43     		orrs	r2, r3
ARM GAS  C:\Users\tsien\AppData\Local\Temp\ccVzEi8h.s 			page 39


 880              	.LVL91:
 881 001c 94B2     		uxth	r4, r2
 882              	.LVL92:
 883              	.L68:
 855:Generated_Source\PSoC4/Jetty_I2C_MASTER.c **** 
 884              		.loc 1 855 0
 885 001e 0A20     		movs	r0, #10
 886 0020 FFF7FEFF 		bl	CyIntEnable
 887              	.LVL93:
 858:Generated_Source\PSoC4/Jetty_I2C_MASTER.c **** 
 888              		.loc 1 858 0
 889 0024 2000     		movs	r0, r4
 890              		@ sp needed
 891              	.LVL94:
 892 0026 10BD     		pop	{r4, pc}
 893              	.L70:
 894              		.align	2
 895              	.L69:
 896 0028 00000000 		.word	Jetty_mstrStatus
 897 002c 00000000 		.word	Jetty_state
 898              		.cfi_endproc
 899              	.LFE11:
 900              		.size	Jetty_I2CMasterStatus, .-Jetty_I2CMasterStatus
 901              		.section	.text.Jetty_I2CMasterClearStatus,"ax",%progbits
 902              		.align	2
 903              		.global	Jetty_I2CMasterClearStatus
 904              		.code	16
 905              		.thumb_func
 906              		.type	Jetty_I2CMasterClearStatus, %function
 907              	Jetty_I2CMasterClearStatus:
 908              	.LFB12:
 876:Generated_Source\PSoC4/Jetty_I2C_MASTER.c ****     uint32 status;
 909              		.loc 1 876 0
 910              		.cfi_startproc
 911              		@ args = 0, pretend = 0, frame = 0
 912              		@ frame_needed = 0, uses_anonymous_args = 0
 913 0000 10B5     		push	{r4, lr}
 914              		.cfi_def_cfa_offset 8
 915              		.cfi_offset 4, -8
 916              		.cfi_offset 14, -4
 879:Generated_Source\PSoC4/Jetty_I2C_MASTER.c **** 
 917              		.loc 1 879 0
 918 0002 0A20     		movs	r0, #10
 919 0004 FFF7FEFF 		bl	CyIntDisable
 920              	.LVL95:
 882:Generated_Source\PSoC4/Jetty_I2C_MASTER.c ****     Jetty_mstrStatus = Jetty_I2C_MSTAT_CLEAR;
 921              		.loc 1 882 0
 922 0008 044B     		ldr	r3, .L72
 923 000a 1C88     		ldrh	r4, [r3]
 924 000c A4B2     		uxth	r4, r4
 925              	.LVL96:
 883:Generated_Source\PSoC4/Jetty_I2C_MASTER.c **** 
 926              		.loc 1 883 0
 927 000e 0022     		movs	r2, #0
 928 0010 1A80     		strh	r2, [r3]
 885:Generated_Source\PSoC4/Jetty_I2C_MASTER.c **** 
 929              		.loc 1 885 0
ARM GAS  C:\Users\tsien\AppData\Local\Temp\ccVzEi8h.s 			page 40


 930 0012 0A20     		movs	r0, #10
 931 0014 FFF7FEFF 		bl	CyIntEnable
 932              	.LVL97:
 888:Generated_Source\PSoC4/Jetty_I2C_MASTER.c **** 
 933              		.loc 1 888 0
 934 0018 2000     		movs	r0, r4
 935              		@ sp needed
 936              	.LVL98:
 937 001a 10BD     		pop	{r4, pc}
 938              	.L73:
 939              		.align	2
 940              	.L72:
 941 001c 00000000 		.word	Jetty_mstrStatus
 942              		.cfi_endproc
 943              	.LFE12:
 944              		.size	Jetty_I2CMasterClearStatus, .-Jetty_I2CMasterClearStatus
 945              		.section	.text.Jetty_I2CReStartGeneration,"ax",%progbits
 946              		.align	2
 947              		.global	Jetty_I2CReStartGeneration
 948              		.code	16
 949              		.thumb_func
 950              		.type	Jetty_I2CReStartGeneration, %function
 951              	Jetty_I2CReStartGeneration:
 952              	.LFB13:
 920:Generated_Source\PSoC4/Jetty_I2C_MASTER.c **** #if(Jetty_CY_SCBIP_V0)
 953              		.loc 1 920 0
 954              		.cfi_startproc
 955              		@ args = 0, pretend = 0, frame = 0
 956              		@ frame_needed = 0, uses_anonymous_args = 0
 957 0000 70B5     		push	{r4, r5, r6, lr}
 958              		.cfi_def_cfa_offset 16
 959              		.cfi_offset 4, -16
 960              		.cfi_offset 5, -12
 961              		.cfi_offset 6, -8
 962              		.cfi_offset 14, -4
 963              	.LVL99:
 932:Generated_Source\PSoC4/Jetty_I2C_MASTER.c **** 
 964              		.loc 1 932 0
 965 0002 2B4B     		ldr	r3, .L84
 966 0004 1B68     		ldr	r3, [r3]
 967 0006 2025     		movs	r5, #32
 968 0008 1D40     		ands	r5, r3
 969              	.LVL100:
 929:Generated_Source\PSoC4/Jetty_I2C_MASTER.c **** 
 970              		.loc 1 929 0
 971 000a 2A4C     		ldr	r4, .L84+4
 935:Generated_Source\PSoC4/Jetty_I2C_MASTER.c ****     {
 972              		.loc 1 935 0
 973 000c 03E0     		b	.L75
 974              	.LVL101:
 975              	.L77:
 937:Generated_Source\PSoC4/Jetty_I2C_MASTER.c ****         --timeout;
 976              		.loc 1 937 0
 977 000e 0120     		movs	r0, #1
 978 0010 FFF7FEFF 		bl	CyDelayUs
 979              	.LVL102:
 938:Generated_Source\PSoC4/Jetty_I2C_MASTER.c ****     }
ARM GAS  C:\Users\tsien\AppData\Local\Temp\ccVzEi8h.s 			page 41


 980              		.loc 1 938 0
 981 0014 013C     		subs	r4, r4, #1
 982              	.LVL103:
 983              	.L75:
 935:Generated_Source\PSoC4/Jetty_I2C_MASTER.c ****     {
 984              		.loc 1 935 0
 985 0016 FFF7FEFF 		bl	Jetty_sda_Read
 986              	.LVL104:
 987 001a 0028     		cmp	r0, #0
 988 001c 01D1     		bne	.L76
 935:Generated_Source\PSoC4/Jetty_I2C_MASTER.c ****     {
 989              		.loc 1 935 0 is_stmt 0 discriminator 1
 990 001e 002C     		cmp	r4, #0
 991 0020 F5D1     		bne	.L77
 992              	.L76:
 941:Generated_Source\PSoC4/Jetty_I2C_MASTER.c ****     {
 993              		.loc 1 941 0 is_stmt 1
 994 0022 002C     		cmp	r4, #0
 995 0024 43D0     		beq	.L74
 996              	.LVL105:
 947:Generated_Source\PSoC4/Jetty_I2C_MASTER.c ****         Jetty_SET_I2C_SCL_HSIOM_SEL(Jetty_HSIOM_GPIO_SEL);
 997              		.loc 1 947 0
 998 0026 0020     		movs	r0, #0
 999 0028 FFF7FEFF 		bl	Jetty_scl_Write
 1000              	.LVL106:
 948:Generated_Source\PSoC4/Jetty_I2C_MASTER.c **** 
 1001              		.loc 1 948 0
 1002 002c 224A     		ldr	r2, .L84+8
 1003 002e 1368     		ldr	r3, [r2]
 1004 0030 0F21     		movs	r1, #15
 1005 0032 8B43     		bics	r3, r1
 1006 0034 1360     		str	r3, [r2]
 951:Generated_Source\PSoC4/Jetty_I2C_MASTER.c **** 
 1007              		.loc 1 951 0
 1008 0036 214A     		ldr	r2, .L84+12
 1009 0038 1368     		ldr	r3, [r2]
 1010 003a 5B00     		lsls	r3, r3, #1
 1011 003c 5B08     		lsrs	r3, r3, #1
 1012 003e 1360     		str	r3, [r2]
 953:Generated_Source\PSoC4/Jetty_I2C_MASTER.c ****         {
 1013              		.loc 1 953 0
 1014 0040 002D     		cmp	r5, #0
 1015 0042 18D0     		beq	.L83
 958:Generated_Source\PSoC4/Jetty_I2C_MASTER.c ****             CyDelayUs(Jetty_I2C_TLOW_TIME);
 1016              		.loc 1 958 0
 1017 0044 0020     		movs	r0, #0
 1018 0046 FFF7FEFF 		bl	Jetty_scl_Write
 1019              	.LVL107:
 959:Generated_Source\PSoC4/Jetty_I2C_MASTER.c **** 
 1020              		.loc 1 959 0
 1021 004a 0A20     		movs	r0, #10
 1022 004c FFF7FEFF 		bl	CyDelayUs
 1023              	.LVL108:
 962:Generated_Source\PSoC4/Jetty_I2C_MASTER.c ****             CyDelayUs(Jetty_I2C_THIGH_TIME);
 1024              		.loc 1 962 0
 1025 0050 0120     		movs	r0, #1
 1026 0052 FFF7FEFF 		bl	Jetty_scl_Write
ARM GAS  C:\Users\tsien\AppData\Local\Temp\ccVzEi8h.s 			page 42


 1027              	.LVL109:
 963:Generated_Source\PSoC4/Jetty_I2C_MASTER.c **** 
 1028              		.loc 1 963 0
 1029 0056 0A20     		movs	r0, #10
 1030 0058 FFF7FEFF 		bl	CyDelayUs
 1031              	.LVL110:
 944:Generated_Source\PSoC4/Jetty_I2C_MASTER.c **** 
 1032              		.loc 1 944 0
 1033 005c 154C     		ldr	r4, .L84+4
 966:Generated_Source\PSoC4/Jetty_I2C_MASTER.c ****             {
 1034              		.loc 1 966 0
 1035 005e 03E0     		b	.L80
 1036              	.LVL111:
 1037              	.L81:
 968:Generated_Source\PSoC4/Jetty_I2C_MASTER.c ****                 --timeout;
 1038              		.loc 1 968 0
 1039 0060 0120     		movs	r0, #1
 1040 0062 FFF7FEFF 		bl	CyDelayUs
 1041              	.LVL112:
 969:Generated_Source\PSoC4/Jetty_I2C_MASTER.c ****             }
 1042              		.loc 1 969 0
 1043 0066 013C     		subs	r4, r4, #1
 1044              	.LVL113:
 1045              	.L80:
 966:Generated_Source\PSoC4/Jetty_I2C_MASTER.c ****             {
 1046              		.loc 1 966 0
 1047 0068 FFF7FEFF 		bl	Jetty_scl_Read
 1048              	.LVL114:
 1049 006c 0028     		cmp	r0, #0
 1050 006e 03D1     		bne	.L79
 966:Generated_Source\PSoC4/Jetty_I2C_MASTER.c ****             {
 1051              		.loc 1 966 0 is_stmt 0 discriminator 1
 1052 0070 002C     		cmp	r4, #0
 1053 0072 F5D1     		bne	.L81
 1054 0074 00E0     		b	.L79
 1055              	.LVL115:
 1056              	.L83:
 944:Generated_Source\PSoC4/Jetty_I2C_MASTER.c **** 
 1057              		.loc 1 944 0 is_stmt 1
 1058 0076 0F4C     		ldr	r4, .L84+4
 1059              	.LVL116:
 1060              	.L79:
 973:Generated_Source\PSoC4/Jetty_I2C_MASTER.c ****         {
 1061              		.loc 1 973 0
 1062 0078 002C     		cmp	r4, #0
 1063 007a 08D0     		beq	.L82
 976:Generated_Source\PSoC4/Jetty_I2C_MASTER.c ****             CyDelayUs(Jetty_I2C_TLOW_TIME);
 1064              		.loc 1 976 0
 1065 007c 0020     		movs	r0, #0
 1066 007e FFF7FEFF 		bl	Jetty_scl_Write
 1067              	.LVL117:
 977:Generated_Source\PSoC4/Jetty_I2C_MASTER.c **** 
 1068              		.loc 1 977 0
 1069 0082 0A20     		movs	r0, #10
 1070 0084 FFF7FEFF 		bl	CyDelayUs
 1071              	.LVL118:
 980:Generated_Source\PSoC4/Jetty_I2C_MASTER.c ****         }
ARM GAS  C:\Users\tsien\AppData\Local\Temp\ccVzEi8h.s 			page 43


 1072              		.loc 1 980 0
 1073 0088 0122     		movs	r2, #1
 1074 008a 0D4B     		ldr	r3, .L84+16
 1075 008c 1A60     		str	r2, [r3]
 1076              	.L82:
 986:Generated_Source\PSoC4/Jetty_I2C_MASTER.c **** 
 1077              		.loc 1 986 0
 1078 008e 0B4A     		ldr	r2, .L84+12
 1079 0090 1368     		ldr	r3, [r2]
 1080 0092 8021     		movs	r1, #128
 1081 0094 0906     		lsls	r1, r1, #24
 1082 0096 0B43     		orrs	r3, r1
 1083 0098 1360     		str	r3, [r2]
 989:Generated_Source\PSoC4/Jetty_I2C_MASTER.c ****         Jetty_SET_I2C_SCL_DR       (Jetty_I2C_SCL_HIGH);
 1084              		.loc 1 989 0
 1085 009a 0749     		ldr	r1, .L84+8
 1086 009c 0B68     		ldr	r3, [r1]
 1087 009e 0F22     		movs	r2, #15
 1088 00a0 9343     		bics	r3, r2
 1089 00a2 013A     		subs	r2, r2, #1
 1090 00a4 1343     		orrs	r3, r2
 1091 00a6 0B60     		str	r3, [r1]
 990:Generated_Source\PSoC4/Jetty_I2C_MASTER.c ****     }
 1092              		.loc 1 990 0
 1093 00a8 0120     		movs	r0, #1
 1094 00aa FFF7FEFF 		bl	Jetty_scl_Write
 1095              	.LVL119:
 1096              	.L74:
1002:Generated_Source\PSoC4/Jetty_I2C_MASTER.c **** 
 1097              		.loc 1 1002 0
 1098              		@ sp needed
 1099              	.LVL120:
 1100              	.LVL121:
 1101 00ae 70BD     		pop	{r4, r5, r6, pc}
 1102              	.L85:
 1103              		.align	2
 1104              	.L84:
 1105 00b0 64000640 		.word	1074135140
 1106 00b4 204E0000 		.word	20000
 1107 00b8 10000140 		.word	1073807376
 1108 00bc 00000640 		.word	1074135040
 1109 00c0 68000640 		.word	1074135144
 1110              		.cfi_endproc
 1111              	.LFE13:
 1112              		.size	Jetty_I2CReStartGeneration, .-Jetty_I2CReStartGeneration
 1113              		.section	.text.Jetty_I2CMasterWriteBuf,"ax",%progbits
 1114              		.align	2
 1115              		.global	Jetty_I2CMasterWriteBuf
 1116              		.code	16
 1117              		.thumb_func
 1118              		.type	Jetty_I2CMasterWriteBuf, %function
 1119              	Jetty_I2CMasterWriteBuf:
 1120              	.LFB0:
 104:Generated_Source\PSoC4/Jetty_I2C_MASTER.c ****     uint32 errStatus;
 1121              		.loc 1 104 0
 1122              		.cfi_startproc
 1123              		@ args = 0, pretend = 0, frame = 8
ARM GAS  C:\Users\tsien\AppData\Local\Temp\ccVzEi8h.s 			page 44


 1124              		@ frame_needed = 0, uses_anonymous_args = 0
 1125              	.LVL122:
 1126 0000 F0B5     		push	{r4, r5, r6, r7, lr}
 1127              		.cfi_def_cfa_offset 20
 1128              		.cfi_offset 4, -20
 1129              		.cfi_offset 5, -16
 1130              		.cfi_offset 6, -12
 1131              		.cfi_offset 7, -8
 1132              		.cfi_offset 14, -4
 1133 0002 83B0     		sub	sp, sp, #12
 1134              		.cfi_def_cfa_offset 32
 1135 0004 0190     		str	r0, [sp, #4]
 1136 0006 0C00     		movs	r4, r1
 1137 0008 1700     		movs	r7, r2
 1138 000a 1D00     		movs	r5, r3
 1139              	.LVL123:
 109:Generated_Source\PSoC4/Jetty_I2C_MASTER.c ****     {
 1140              		.loc 1 109 0
 1141 000c 0029     		cmp	r1, #0
 1142 000e 17D0     		beq	.L91
 112:Generated_Source\PSoC4/Jetty_I2C_MASTER.c ****         {
 1143              		.loc 1 112 0
 1144 0010 2A4B     		ldr	r3, .L94
 1145              	.LVL124:
 1146 0012 1B78     		ldrb	r3, [r3]
 1147 0014 102B     		cmp	r3, #16
 1148 0016 08D1     		bne	.L88
 114:Generated_Source\PSoC4/Jetty_I2C_MASTER.c **** 
 1149              		.loc 1 114 0
 1150 0018 0A20     		movs	r0, #10
 1151              	.LVL125:
 1152 001a FFF7FEFF 		bl	CyIntDisable
 1153              	.LVL126:
 117:Generated_Source\PSoC4/Jetty_I2C_MASTER.c ****                             Jetty_I2C_MSTR_BUS_BUSY : Jetty_I2C_MSTR_NO_ERROR;
 1154              		.loc 1 117 0
 1155 001e 284B     		ldr	r3, .L94+4
 1156 0020 1B68     		ldr	r3, [r3]
 1157 0022 DB07     		lsls	r3, r3, #31
 1158 0024 0ED5     		bpl	.L92
 1159 0026 0826     		movs	r6, #8
 1160 0028 0FE0     		b	.L87
 1161              	.LVL127:
 1162              	.L88:
 120:Generated_Source\PSoC4/Jetty_I2C_MASTER.c ****         {
 1163              		.loc 1 120 0
 1164 002a 244B     		ldr	r3, .L94
 1165 002c 1B78     		ldrb	r3, [r3]
 1166 002e 602B     		cmp	r3, #96
 1167 0030 0AD1     		bne	.L93
 122:Generated_Source\PSoC4/Jetty_I2C_MASTER.c ****                               errStatus  = Jetty_I2C_MSTR_NO_ERROR;
 1168              		.loc 1 122 0
 1169 0032 244A     		ldr	r2, .L94+8
 1170              	.LVL128:
 1171 0034 1388     		ldrh	r3, [r2]
 1172 0036 0821     		movs	r1, #8
 1173              	.LVL129:
 1174 0038 8B43     		bics	r3, r1
ARM GAS  C:\Users\tsien\AppData\Local\Temp\ccVzEi8h.s 			page 45


 1175 003a 1380     		strh	r3, [r2]
 1176              	.LVL130:
 123:Generated_Source\PSoC4/Jetty_I2C_MASTER.c ****         }
 1177              		.loc 1 123 0
 1178 003c 0026     		movs	r6, #0
 1179 003e 04E0     		b	.L87
 1180              	.LVL131:
 1181              	.L91:
 107:Generated_Source\PSoC4/Jetty_I2C_MASTER.c **** 
 1182              		.loc 1 107 0
 1183 0040 0426     		movs	r6, #4
 1184 0042 02E0     		b	.L87
 1185              	.LVL132:
 1186              	.L92:
 117:Generated_Source\PSoC4/Jetty_I2C_MASTER.c ****                             Jetty_I2C_MSTR_BUS_BUSY : Jetty_I2C_MSTR_NO_ERROR;
 1187              		.loc 1 117 0
 1188 0044 0026     		movs	r6, #0
 1189 0046 00E0     		b	.L87
 1190              	.LVL133:
 1191              	.L93:
 107:Generated_Source\PSoC4/Jetty_I2C_MASTER.c **** 
 1192              		.loc 1 107 0
 1193 0048 0426     		movs	r6, #4
 1194              	.LVL134:
 1195              	.L87:
 132:Generated_Source\PSoC4/Jetty_I2C_MASTER.c ****     {
 1196              		.loc 1 132 0
 1197 004a 002E     		cmp	r6, #0
 1198 004c 2FD1     		bne	.L89
 138:Generated_Source\PSoC4/Jetty_I2C_MASTER.c ****         Jetty_mstrWrBufIndexTmp = 0u;
 1199              		.loc 1 138 0
 1200 004e 2822     		movs	r2, #40
 1201 0050 1A4B     		ldr	r3, .L94
 1202 0052 1A70     		strb	r2, [r3]
 139:Generated_Source\PSoC4/Jetty_I2C_MASTER.c ****         Jetty_mstrWrBufIndex    = 0u;
 1203              		.loc 1 139 0
 1204 0054 0023     		movs	r3, #0
 1205 0056 1C4A     		ldr	r2, .L94+12
 1206 0058 1360     		str	r3, [r2]
 140:Generated_Source\PSoC4/Jetty_I2C_MASTER.c ****         Jetty_mstrWrBufSize     = cnt;
 1207              		.loc 1 140 0
 1208 005a 1C4A     		ldr	r2, .L94+16
 1209 005c 1360     		str	r3, [r2]
 141:Generated_Source\PSoC4/Jetty_I2C_MASTER.c ****         Jetty_mstrWrBufPtr      = (volatile uint8 *) wrData;
 1210              		.loc 1 141 0
 1211 005e 1C4B     		ldr	r3, .L94+20
 1212 0060 1F60     		str	r7, [r3]
 142:Generated_Source\PSoC4/Jetty_I2C_MASTER.c ****         Jetty_mstrControl       = (uint8) mode;
 1213              		.loc 1 142 0
 1214 0062 1C4B     		ldr	r3, .L94+24
 1215 0064 1C60     		str	r4, [r3]
 143:Generated_Source\PSoC4/Jetty_I2C_MASTER.c **** 
 1216              		.loc 1 143 0
 1217 0066 EAB2     		uxtb	r2, r5
 1218 0068 1B4B     		ldr	r3, .L94+28
 1219 006a 1A70     		strb	r2, [r3]
 145:Generated_Source\PSoC4/Jetty_I2C_MASTER.c **** 
ARM GAS  C:\Users\tsien\AppData\Local\Temp\ccVzEi8h.s 			page 46


 1220              		.loc 1 145 0
 1221 006c 019B     		ldr	r3, [sp, #4]
 1222 006e 5C00     		lsls	r4, r3, #1
 1223              	.LVL135:
 1224 0070 FF23     		movs	r3, #255
 1225 0072 1C40     		ands	r4, r3
 1226              	.LVL136:
 147:Generated_Source\PSoC4/Jetty_I2C_MASTER.c **** 
 1227              		.loc 1 147 0
 1228 0074 134A     		ldr	r2, .L94+8
 1229 0076 1388     		ldrh	r3, [r2]
 1230 0078 0221     		movs	r1, #2
 1231 007a 8B43     		bics	r3, r1
 1232 007c 1380     		strh	r3, [r2]
 149:Generated_Source\PSoC4/Jetty_I2C_MASTER.c ****         Jetty_ClearMasterInterruptSource(Jetty_INTR_MASTER_ALL);
 1233              		.loc 1 149 0
 1234 007e 4023     		movs	r3, #64
 1235 0080 164A     		ldr	r2, .L94+32
 1236 0082 1360     		str	r3, [r2]
 1237              	.LVL137:
 150:Generated_Source\PSoC4/Jetty_I2C_MASTER.c ****         Jetty_SetMasterInterruptMode    (Jetty_I2C_INTR_MASTER_MASK);
 1238              		.loc 1 150 0
 1239 0084 1649     		ldr	r1, .L94+36
 1240 0086 174A     		ldr	r2, .L94+40
 1241 0088 1160     		str	r1, [r2]
 151:Generated_Source\PSoC4/Jetty_I2C_MASTER.c **** 
 1242              		.loc 1 151 0
 1243 008a 1421     		movs	r1, #20
 1244 008c FF31     		adds	r1, r1, #255
 1245 008e 164A     		ldr	r2, .L94+44
 1246 0090 1160     		str	r1, [r2]
 156:Generated_Source\PSoC4/Jetty_I2C_MASTER.c **** 
 1247              		.loc 1 156 0
 1248 0092 164A     		ldr	r2, .L94+48
 1249 0094 1360     		str	r3, [r2]
 159:Generated_Source\PSoC4/Jetty_I2C_MASTER.c ****         {
 1250              		.loc 1 159 0
 1251 0096 EB07     		lsls	r3, r5, #31
 1252 0098 04D5     		bpl	.L90
 161:Generated_Source\PSoC4/Jetty_I2C_MASTER.c ****             Jetty_TX_FIFO_WR_REG = slaveAddress;
 1253              		.loc 1 161 0
 1254 009a FFF7FEFF 		bl	Jetty_I2CReStartGeneration
 1255              	.LVL138:
 162:Generated_Source\PSoC4/Jetty_I2C_MASTER.c ****         }
 1256              		.loc 1 162 0
 1257 009e 144B     		ldr	r3, .L94+52
 1258 00a0 1C60     		str	r4, [r3]
 1259 00a2 04E0     		b	.L89
 1260              	.L90:
 166:Generated_Source\PSoC4/Jetty_I2C_MASTER.c ****             Jetty_I2C_MASTER_GENERATE_START;
 1261              		.loc 1 166 0
 1262 00a4 124B     		ldr	r3, .L94+52
 1263 00a6 1C60     		str	r4, [r3]
 167:Generated_Source\PSoC4/Jetty_I2C_MASTER.c ****         }
 1264              		.loc 1 167 0
 1265 00a8 0222     		movs	r2, #2
 1266 00aa 124B     		ldr	r3, .L94+56
ARM GAS  C:\Users\tsien\AppData\Local\Temp\ccVzEi8h.s 			page 47


 1267 00ac 1A60     		str	r2, [r3]
 1268              	.LVL139:
 1269              	.L89:
 171:Generated_Source\PSoC4/Jetty_I2C_MASTER.c **** 
 1270              		.loc 1 171 0
 1271 00ae 0A20     		movs	r0, #10
 1272 00b0 FFF7FEFF 		bl	CyIntEnable
 1273              	.LVL140:
 174:Generated_Source\PSoC4/Jetty_I2C_MASTER.c **** 
 1274              		.loc 1 174 0
 1275 00b4 3000     		movs	r0, r6
 1276 00b6 03B0     		add	sp, sp, #12
 1277              		@ sp needed
 1278              	.LVL141:
 1279              	.LVL142:
 1280              	.LVL143:
 1281 00b8 F0BD     		pop	{r4, r5, r6, r7, pc}
 1282              	.L95:
 1283 00ba C046     		.align	2
 1284              	.L94:
 1285 00bc 00000000 		.word	Jetty_state
 1286 00c0 64000640 		.word	1074135140
 1287 00c4 00000000 		.word	Jetty_mstrStatus
 1288 00c8 00000000 		.word	Jetty_mstrWrBufIndexTmp
 1289 00cc 00000000 		.word	Jetty_mstrWrBufIndex
 1290 00d0 00000000 		.word	Jetty_mstrWrBufSize
 1291 00d4 00000000 		.word	Jetty_mstrWrBufPtr
 1292 00d8 00000000 		.word	Jetty_mstrControl
 1293 00dc 800F0640 		.word	1074139008
 1294 00e0 17030000 		.word	791
 1295 00e4 000F0640 		.word	1074138880
 1296 00e8 080F0640 		.word	1074138888
 1297 00ec 880F0640 		.word	1074139016
 1298 00f0 40020640 		.word	1074135616
 1299 00f4 68000640 		.word	1074135144
 1300              		.cfi_endproc
 1301              	.LFE0:
 1302              		.size	Jetty_I2CMasterWriteBuf, .-Jetty_I2CMasterWriteBuf
 1303              		.section	.text.Jetty_I2CMasterReadBuf,"ax",%progbits
 1304              		.align	2
 1305              		.global	Jetty_I2CMasterReadBuf
 1306              		.code	16
 1307              		.thumb_func
 1308              		.type	Jetty_I2CMasterReadBuf, %function
 1309              	Jetty_I2CMasterReadBuf:
 1310              	.LFB1:
 214:Generated_Source\PSoC4/Jetty_I2C_MASTER.c ****     uint32 errStatus;
 1311              		.loc 1 214 0
 1312              		.cfi_startproc
 1313              		@ args = 0, pretend = 0, frame = 8
 1314              		@ frame_needed = 0, uses_anonymous_args = 0
 1315              	.LVL144:
 1316 0000 F0B5     		push	{r4, r5, r6, r7, lr}
 1317              		.cfi_def_cfa_offset 20
 1318              		.cfi_offset 4, -20
 1319              		.cfi_offset 5, -16
 1320              		.cfi_offset 6, -12
ARM GAS  C:\Users\tsien\AppData\Local\Temp\ccVzEi8h.s 			page 48


 1321              		.cfi_offset 7, -8
 1322              		.cfi_offset 14, -4
 1323 0002 83B0     		sub	sp, sp, #12
 1324              		.cfi_def_cfa_offset 32
 1325 0004 0190     		str	r0, [sp, #4]
 1326 0006 0C00     		movs	r4, r1
 1327 0008 1700     		movs	r7, r2
 1328 000a 1D00     		movs	r5, r3
 1329              	.LVL145:
 219:Generated_Source\PSoC4/Jetty_I2C_MASTER.c ****     {
 1330              		.loc 1 219 0
 1331 000c 0029     		cmp	r1, #0
 1332 000e 17D0     		beq	.L103
 222:Generated_Source\PSoC4/Jetty_I2C_MASTER.c ****         {
 1333              		.loc 1 222 0
 1334 0010 2F4B     		ldr	r3, .L106
 1335              	.LVL146:
 1336 0012 1B78     		ldrb	r3, [r3]
 1337 0014 102B     		cmp	r3, #16
 1338 0016 08D1     		bne	.L98
 224:Generated_Source\PSoC4/Jetty_I2C_MASTER.c **** 
 1339              		.loc 1 224 0
 1340 0018 0A20     		movs	r0, #10
 1341              	.LVL147:
 1342 001a FFF7FEFF 		bl	CyIntDisable
 1343              	.LVL148:
 227:Generated_Source\PSoC4/Jetty_I2C_MASTER.c ****                             Jetty_I2C_MSTR_BUS_BUSY : Jetty_I2C_MSTR_NO_ERROR;
 1344              		.loc 1 227 0
 1345 001e 2D4B     		ldr	r3, .L106+4
 1346 0020 1B68     		ldr	r3, [r3]
 1347 0022 DB07     		lsls	r3, r3, #31
 1348 0024 0ED5     		bpl	.L104
 1349 0026 0826     		movs	r6, #8
 1350 0028 0FE0     		b	.L97
 1351              	.LVL149:
 1352              	.L98:
 230:Generated_Source\PSoC4/Jetty_I2C_MASTER.c ****         {
 1353              		.loc 1 230 0
 1354 002a 294B     		ldr	r3, .L106
 1355 002c 1B78     		ldrb	r3, [r3]
 1356 002e 602B     		cmp	r3, #96
 1357 0030 0AD1     		bne	.L105
 232:Generated_Source\PSoC4/Jetty_I2C_MASTER.c ****                               errStatus  =  Jetty_I2C_MSTR_NO_ERROR;
 1358              		.loc 1 232 0
 1359 0032 294A     		ldr	r2, .L106+8
 1360              	.LVL150:
 1361 0034 1388     		ldrh	r3, [r2]
 1362 0036 0821     		movs	r1, #8
 1363              	.LVL151:
 1364 0038 8B43     		bics	r3, r1
 1365 003a 1380     		strh	r3, [r2]
 1366              	.LVL152:
 233:Generated_Source\PSoC4/Jetty_I2C_MASTER.c ****         }
 1367              		.loc 1 233 0
 1368 003c 0026     		movs	r6, #0
 1369 003e 04E0     		b	.L97
 1370              	.LVL153:
ARM GAS  C:\Users\tsien\AppData\Local\Temp\ccVzEi8h.s 			page 49


 1371              	.L103:
 217:Generated_Source\PSoC4/Jetty_I2C_MASTER.c **** 
 1372              		.loc 1 217 0
 1373 0040 0426     		movs	r6, #4
 1374 0042 02E0     		b	.L97
 1375              	.LVL154:
 1376              	.L104:
 227:Generated_Source\PSoC4/Jetty_I2C_MASTER.c ****                             Jetty_I2C_MSTR_BUS_BUSY : Jetty_I2C_MSTR_NO_ERROR;
 1377              		.loc 1 227 0
 1378 0044 0026     		movs	r6, #0
 1379 0046 00E0     		b	.L97
 1380              	.LVL155:
 1381              	.L105:
 217:Generated_Source\PSoC4/Jetty_I2C_MASTER.c **** 
 1382              		.loc 1 217 0
 1383 0048 0426     		movs	r6, #4
 1384              	.LVL156:
 1385              	.L97:
 242:Generated_Source\PSoC4/Jetty_I2C_MASTER.c ****     {
 1386              		.loc 1 242 0
 1387 004a 002E     		cmp	r6, #0
 1388 004c 39D1     		bne	.L99
 248:Generated_Source\PSoC4/Jetty_I2C_MASTER.c ****         Jetty_mstrRdBufIndex = 0u;
 1389              		.loc 1 248 0
 1390 004e 2922     		movs	r2, #41
 1391 0050 1F4B     		ldr	r3, .L106
 1392 0052 1A70     		strb	r2, [r3]
 249:Generated_Source\PSoC4/Jetty_I2C_MASTER.c ****         Jetty_mstrRdBufSize  = cnt;
 1393              		.loc 1 249 0
 1394 0054 0022     		movs	r2, #0
 1395 0056 214B     		ldr	r3, .L106+12
 1396 0058 1A60     		str	r2, [r3]
 250:Generated_Source\PSoC4/Jetty_I2C_MASTER.c ****         Jetty_mstrRdBufPtr   = (volatile uint8 *) rdData;
 1397              		.loc 1 250 0
 1398 005a 214A     		ldr	r2, .L106+16
 1399 005c 1760     		str	r7, [r2]
 251:Generated_Source\PSoC4/Jetty_I2C_MASTER.c ****         Jetty_mstrControl    = (uint8) mode;
 1400              		.loc 1 251 0
 1401 005e 214B     		ldr	r3, .L106+20
 1402 0060 1C60     		str	r4, [r3]
 252:Generated_Source\PSoC4/Jetty_I2C_MASTER.c **** 
 1403              		.loc 1 252 0
 1404 0062 EBB2     		uxtb	r3, r5
 1405 0064 2049     		ldr	r1, .L106+24
 1406 0066 0B70     		strb	r3, [r1]
 254:Generated_Source\PSoC4/Jetty_I2C_MASTER.c **** 
 1407              		.loc 1 254 0
 1408 0068 019B     		ldr	r3, [sp, #4]
 1409 006a 5C00     		lsls	r4, r3, #1
 1410              	.LVL157:
 1411 006c FF23     		movs	r3, #255
 1412 006e 1C40     		ands	r4, r3
 1413 0070 0120     		movs	r0, #1
 1414 0072 0443     		orrs	r4, r0
 1415              	.LVL158:
 256:Generated_Source\PSoC4/Jetty_I2C_MASTER.c **** 
 1416              		.loc 1 256 0
ARM GAS  C:\Users\tsien\AppData\Local\Temp\ccVzEi8h.s 			page 50


 1417 0074 1849     		ldr	r1, .L106+8
 1418 0076 0B88     		ldrh	r3, [r1]
 1419 0078 8343     		bics	r3, r0
 1420 007a 0B80     		strh	r3, [r1]
 258:Generated_Source\PSoC4/Jetty_I2C_MASTER.c ****         Jetty_SetMasterInterruptMode    (Jetty_I2C_INTR_MASTER_MASK);
 1421              		.loc 1 258 0
 1422 007c 1B49     		ldr	r1, .L106+28
 1423 007e 1C4B     		ldr	r3, .L106+32
 1424 0080 1960     		str	r1, [r3]
 1425              	.LVL159:
 259:Generated_Source\PSoC4/Jetty_I2C_MASTER.c **** 
 1426              		.loc 1 259 0
 1427 0082 1421     		movs	r1, #20
 1428 0084 FF31     		adds	r1, r1, #255
 1429 0086 1B4B     		ldr	r3, .L106+36
 1430 0088 1960     		str	r1, [r3]
 264:Generated_Source\PSoC4/Jetty_I2C_MASTER.c ****         {
 1431              		.loc 1 264 0
 1432 008a 1368     		ldr	r3, [r2]
 1433 008c 072B     		cmp	r3, #7
 1434 008e 03D8     		bhi	.L100
 267:Generated_Source\PSoC4/Jetty_I2C_MASTER.c ****         }
 1435              		.loc 1 267 0
 1436 0090 0422     		movs	r2, #4
 1437 0092 194B     		ldr	r3, .L106+40
 1438 0094 1A60     		str	r2, [r3]
 1439 0096 08E0     		b	.L101
 1440              	.L100:
 272:Generated_Source\PSoC4/Jetty_I2C_MASTER.c ****             Jetty_SetRxInterruptMode(Jetty_INTR_RX_FULL);
 1441              		.loc 1 272 0
 1442 0098 184A     		ldr	r2, .L106+44
 1443 009a 1368     		ldr	r3, [r2]
 1444 009c 8021     		movs	r1, #128
 1445 009e 4900     		lsls	r1, r1, #1
 1446 00a0 0B43     		orrs	r3, r1
 1447 00a2 1360     		str	r3, [r2]
 273:Generated_Source\PSoC4/Jetty_I2C_MASTER.c ****         }
 1448              		.loc 1 273 0
 1449 00a4 0822     		movs	r2, #8
 1450 00a6 144B     		ldr	r3, .L106+40
 1451 00a8 1A60     		str	r2, [r3]
 1452              	.L101:
 277:Generated_Source\PSoC4/Jetty_I2C_MASTER.c ****         {
 1453              		.loc 1 277 0
 1454 00aa EB07     		lsls	r3, r5, #31
 1455 00ac 04D5     		bpl	.L102
 279:Generated_Source\PSoC4/Jetty_I2C_MASTER.c ****             Jetty_TX_FIFO_WR_REG = slaveAddress;
 1456              		.loc 1 279 0
 1457 00ae FFF7FEFF 		bl	Jetty_I2CReStartGeneration
 1458              	.LVL160:
 280:Generated_Source\PSoC4/Jetty_I2C_MASTER.c ****         }
 1459              		.loc 1 280 0
 1460 00b2 134B     		ldr	r3, .L106+48
 1461 00b4 1C60     		str	r4, [r3]
 1462 00b6 04E0     		b	.L99
 1463              	.L102:
 284:Generated_Source\PSoC4/Jetty_I2C_MASTER.c ****             Jetty_I2C_MASTER_GENERATE_START;
ARM GAS  C:\Users\tsien\AppData\Local\Temp\ccVzEi8h.s 			page 51


 1464              		.loc 1 284 0
 1465 00b8 114B     		ldr	r3, .L106+48
 1466 00ba 1C60     		str	r4, [r3]
 285:Generated_Source\PSoC4/Jetty_I2C_MASTER.c ****         }
 1467              		.loc 1 285 0
 1468 00bc 0222     		movs	r2, #2
 1469 00be 114B     		ldr	r3, .L106+52
 1470 00c0 1A60     		str	r2, [r3]
 1471              	.LVL161:
 1472              	.L99:
 289:Generated_Source\PSoC4/Jetty_I2C_MASTER.c **** 
 1473              		.loc 1 289 0
 1474 00c2 0A20     		movs	r0, #10
 1475 00c4 FFF7FEFF 		bl	CyIntEnable
 1476              	.LVL162:
 292:Generated_Source\PSoC4/Jetty_I2C_MASTER.c **** 
 1477              		.loc 1 292 0
 1478 00c8 3000     		movs	r0, r6
 1479 00ca 03B0     		add	sp, sp, #12
 1480              		@ sp needed
 1481              	.LVL163:
 1482              	.LVL164:
 1483              	.LVL165:
 1484 00cc F0BD     		pop	{r4, r5, r6, r7, pc}
 1485              	.L107:
 1486 00ce C046     		.align	2
 1487              	.L106:
 1488 00d0 00000000 		.word	Jetty_state
 1489 00d4 64000640 		.word	1074135140
 1490 00d8 00000000 		.word	Jetty_mstrStatus
 1491 00dc 00000000 		.word	Jetty_mstrRdBufIndex
 1492 00e0 00000000 		.word	Jetty_mstrRdBufSize
 1493 00e4 00000000 		.word	Jetty_mstrRdBufPtr
 1494 00e8 00000000 		.word	Jetty_mstrControl
 1495 00ec 17030000 		.word	791
 1496 00f0 000F0640 		.word	1074138880
 1497 00f4 080F0640 		.word	1074138888
 1498 00f8 C80F0640 		.word	1074139080
 1499 00fc 60000640 		.word	1074135136
 1500 0100 40020640 		.word	1074135616
 1501 0104 68000640 		.word	1074135144
 1502              		.cfi_endproc
 1503              	.LFE1:
 1504              		.size	Jetty_I2CMasterReadBuf, .-Jetty_I2CMasterReadBuf
 1505              		.section	.text.Jetty_I2CMasterSendRestart,"ax",%progbits
 1506              		.align	2
 1507              		.global	Jetty_I2CMasterSendRestart
 1508              		.code	16
 1509              		.thumb_func
 1510              		.type	Jetty_I2CMasterSendRestart, %function
 1511              	Jetty_I2CMasterSendRestart:
 1512              	.LFB3:
 445:Generated_Source\PSoC4/Jetty_I2C_MASTER.c ****     uint32 errStatus = Jetty_I2C_MSTR_NOT_READY;
 1513              		.loc 1 445 0
 1514              		.cfi_startproc
 1515              		@ args = 0, pretend = 0, frame = 8
 1516              		@ frame_needed = 0, uses_anonymous_args = 0
ARM GAS  C:\Users\tsien\AppData\Local\Temp\ccVzEi8h.s 			page 52


 1517              	.LVL166:
 1518 0000 10B5     		push	{r4, lr}
 1519              		.cfi_def_cfa_offset 8
 1520              		.cfi_offset 4, -8
 1521              		.cfi_offset 14, -4
 1522 0002 82B0     		sub	sp, sp, #8
 1523              		.cfi_def_cfa_offset 16
 1524              	.LVL167:
 449:Generated_Source\PSoC4/Jetty_I2C_MASTER.c ****     {
 1525              		.loc 1 449 0
 1526 0004 154B     		ldr	r3, .L114
 1527 0006 1B78     		ldrb	r3, [r3]
 1528 0008 9B06     		lsls	r3, r3, #26
 1529 000a 23D5     		bpl	.L113
 1530              	.LBB6:
 452:Generated_Source\PSoC4/Jetty_I2C_MASTER.c **** 
 1531              		.loc 1 452 0
 1532 000c FA23     		movs	r3, #250
 1533 000e 9B00     		lsls	r3, r3, #2
 1534 0010 5A43     		muls	r2, r3
 1535              	.LVL168:
 1536 0012 0192     		str	r2, [sp, #4]
 454:Generated_Source\PSoC4/Jetty_I2C_MASTER.c **** 
 1537              		.loc 1 454 0
 1538 0014 4000     		lsls	r0, r0, #1
 1539              	.LVL169:
 1540 0016 FF24     		movs	r4, #255
 1541 0018 0440     		ands	r4, r0
 1542              	.LVL170:
 456:Generated_Source\PSoC4/Jetty_I2C_MASTER.c ****         {
 1543              		.loc 1 456 0
 1544 001a 0029     		cmp	r1, #0
 1545 001c 03D1     		bne	.L110
 458:Generated_Source\PSoC4/Jetty_I2C_MASTER.c ****         }
 1546              		.loc 1 458 0
 1547 001e 2422     		movs	r2, #36
 1548 0020 0E4B     		ldr	r3, .L114
 1549 0022 1A70     		strb	r2, [r3]
 1550 0024 04E0     		b	.L111
 1551              	.L110:
 462:Generated_Source\PSoC4/Jetty_I2C_MASTER.c ****                       slaveAddress |= Jetty_I2C_READ_FLAG;
 1552              		.loc 1 462 0
 1553 0026 2522     		movs	r2, #37
 1554 0028 0C4B     		ldr	r3, .L114
 1555 002a 1A70     		strb	r2, [r3]
 463:Generated_Source\PSoC4/Jetty_I2C_MASTER.c ****         }
 1556              		.loc 1 463 0
 1557 002c 0123     		movs	r3, #1
 1558 002e 1C43     		orrs	r4, r3
 1559              	.LVL171:
 1560              	.L111:
 471:Generated_Source\PSoC4/Jetty_I2C_MASTER.c ****         Jetty_TX_FIFO_WR_REG = slaveAddress;
 1561              		.loc 1 471 0
 1562 0030 FFF7FEFF 		bl	Jetty_I2CReStartGeneration
 1563              	.LVL172:
 472:Generated_Source\PSoC4/Jetty_I2C_MASTER.c **** 
 1564              		.loc 1 472 0
ARM GAS  C:\Users\tsien\AppData\Local\Temp\ccVzEi8h.s 			page 53


 1565 0034 0A4B     		ldr	r3, .L114+4
 1566 0036 1C60     		str	r4, [r3]
 1567              	.LVL173:
 1568              	.L112:
 477:Generated_Source\PSoC4/Jetty_I2C_MASTER.c ****             locStatus |= Jetty_I2CMasterWaitOneUnit(&timeout);
 1569              		.loc 1 477 0 discriminator 1
 1570 0038 0A4B     		ldr	r3, .L114+8
 1571 003a 1868     		ldr	r0, [r3]
 1572 003c 0823     		movs	r3, #8
 1573 003e FF33     		adds	r3, r3, #255
 1574 0040 1840     		ands	r0, r3
 1575 0042 0400     		movs	r4, r0
 1576              	.LVL174:
 478:Generated_Source\PSoC4/Jetty_I2C_MASTER.c ****         }
 1577              		.loc 1 478 0 discriminator 1
 1578 0044 01A8     		add	r0, sp, #4
 1579              	.LVL175:
 1580 0046 FFF7FEFF 		bl	Jetty_I2CMasterWaitOneUnit
 1581              	.LVL176:
 1582 004a 2043     		orrs	r0, r4
 1583              	.LVL177:
 480:Generated_Source\PSoC4/Jetty_I2C_MASTER.c **** 
 1584              		.loc 1 480 0 discriminator 1
 1585 004c F4D0     		beq	.L112
 484:Generated_Source\PSoC4/Jetty_I2C_MASTER.c ****     }
 1586              		.loc 1 484 0
 1587 004e FFF7FEFF 		bl	Jetty_I2CMasterHandleStatus
 1588              	.LVL178:
 1589 0052 00E0     		b	.L109
 1590              	.LVL179:
 1591              	.L113:
 1592              	.LBE6:
 446:Generated_Source\PSoC4/Jetty_I2C_MASTER.c **** 
 1593              		.loc 1 446 0
 1594 0054 0420     		movs	r0, #4
 1595              	.LVL180:
 1596              	.L109:
 488:Generated_Source\PSoC4/Jetty_I2C_MASTER.c **** 
 1597              		.loc 1 488 0
 1598 0056 02B0     		add	sp, sp, #8
 1599              		@ sp needed
 1600 0058 10BD     		pop	{r4, pc}
 1601              	.L115:
 1602 005a C046     		.align	2
 1603              	.L114:
 1604 005c 00000000 		.word	Jetty_state
 1605 0060 40020640 		.word	1074135616
 1606 0064 000F0640 		.word	1074138880
 1607              		.cfi_endproc
 1608              	.LFE3:
 1609              		.size	Jetty_I2CMasterSendRestart, .-Jetty_I2CMasterSendRestart
 1610              		.comm	Jetty_mstrWrBufIndexTmp,4,4
 1611              		.comm	Jetty_mstrWrBufIndex,4,4
 1612              		.comm	Jetty_mstrWrBufSize,4,4
 1613              		.comm	Jetty_mstrWrBufPtr,4,4
 1614              		.comm	Jetty_mstrRdBufIndex,4,4
 1615              		.comm	Jetty_mstrRdBufSize,4,4
ARM GAS  C:\Users\tsien\AppData\Local\Temp\ccVzEi8h.s 			page 54


 1616              		.comm	Jetty_mstrRdBufPtr,4,4
 1617              		.comm	Jetty_mstrControl,1,1
 1618              		.comm	Jetty_mstrStatus,2,2
 1619              		.text
 1620              	.Letext0:
 1621              		.file 2 "Generated_Source\\PSoC4/cytypes.h"
 1622              		.file 3 "Generated_Source\\PSoC4\\Jetty_I2C_PVT.h"
 1623              		.file 4 "Generated_Source\\PSoC4/CyLib.h"
 1624              		.file 5 "Generated_Source\\PSoC4\\Jetty_sda.h"
 1625              		.file 6 "Generated_Source\\PSoC4\\Jetty_scl.h"
 1626              		.section	.debug_info,"",%progbits
 1627              	.Ldebug_info0:
 1628 0000 19090000 		.4byte	0x919
 1629 0004 0400     		.2byte	0x4
 1630 0006 00000000 		.4byte	.Ldebug_abbrev0
 1631 000a 04       		.byte	0x4
 1632 000b 01       		.uleb128 0x1
 1633 000c 47000000 		.4byte	.LASF69
 1634 0010 0C       		.byte	0xc
 1635 0011 CE040000 		.4byte	.LASF70
 1636 0015 4F030000 		.4byte	.LASF71
 1637 0019 00000000 		.4byte	.Ldebug_ranges0+0
 1638 001d 00000000 		.4byte	0
 1639 0021 00000000 		.4byte	.Ldebug_line0
 1640 0025 02       		.uleb128 0x2
 1641 0026 01       		.byte	0x1
 1642 0027 06       		.byte	0x6
 1643 0028 1D010000 		.4byte	.LASF0
 1644 002c 02       		.uleb128 0x2
 1645 002d 01       		.byte	0x1
 1646 002e 08       		.byte	0x8
 1647 002f 16030000 		.4byte	.LASF1
 1648 0033 02       		.uleb128 0x2
 1649 0034 02       		.byte	0x2
 1650 0035 05       		.byte	0x5
 1651 0036 24030000 		.4byte	.LASF2
 1652 003a 02       		.uleb128 0x2
 1653 003b 02       		.byte	0x2
 1654 003c 07       		.byte	0x7
 1655 003d 22020000 		.4byte	.LASF3
 1656 0041 02       		.uleb128 0x2
 1657 0042 04       		.byte	0x4
 1658 0043 05       		.byte	0x5
 1659 0044 30010000 		.4byte	.LASF4
 1660 0048 02       		.uleb128 0x2
 1661 0049 04       		.byte	0x4
 1662 004a 07       		.byte	0x7
 1663 004b F6010000 		.4byte	.LASF5
 1664 004f 02       		.uleb128 0x2
 1665 0050 08       		.byte	0x8
 1666 0051 05       		.byte	0x5
 1667 0052 0F010000 		.4byte	.LASF6
 1668 0056 02       		.uleb128 0x2
 1669 0057 08       		.byte	0x8
 1670 0058 07       		.byte	0x7
 1671 0059 ED000000 		.4byte	.LASF7
 1672 005d 03       		.uleb128 0x3
ARM GAS  C:\Users\tsien\AppData\Local\Temp\ccVzEi8h.s 			page 55


 1673 005e 04       		.byte	0x4
 1674 005f 05       		.byte	0x5
 1675 0060 696E7400 		.ascii	"int\000"
 1676 0064 02       		.uleb128 0x2
 1677 0065 04       		.byte	0x4
 1678 0066 07       		.byte	0x7
 1679 0067 E9010000 		.4byte	.LASF8
 1680 006b 04       		.uleb128 0x4
 1681 006c 64010000 		.4byte	.LASF9
 1682 0070 02       		.byte	0x2
 1683 0071 FB01     		.2byte	0x1fb
 1684 0073 2C000000 		.4byte	0x2c
 1685 0077 04       		.uleb128 0x4
 1686 0078 00000000 		.4byte	.LASF10
 1687 007c 02       		.byte	0x2
 1688 007d FC01     		.2byte	0x1fc
 1689 007f 3A000000 		.4byte	0x3a
 1690 0083 04       		.uleb128 0x4
 1691 0084 97010000 		.4byte	.LASF11
 1692 0088 02       		.byte	0x2
 1693 0089 FD01     		.2byte	0x1fd
 1694 008b 48000000 		.4byte	0x48
 1695 008f 02       		.uleb128 0x2
 1696 0090 04       		.byte	0x4
 1697 0091 04       		.byte	0x4
 1698 0092 BF020000 		.4byte	.LASF12
 1699 0096 02       		.uleb128 0x2
 1700 0097 08       		.byte	0x8
 1701 0098 04       		.byte	0x4
 1702 0099 74010000 		.4byte	.LASF13
 1703 009d 02       		.uleb128 0x2
 1704 009e 01       		.byte	0x1
 1705 009f 08       		.byte	0x8
 1706 00a0 1F040000 		.4byte	.LASF14
 1707 00a4 05       		.uleb128 0x5
 1708 00a5 6B000000 		.4byte	0x6b
 1709 00a9 05       		.uleb128 0x5
 1710 00aa 77000000 		.4byte	0x77
 1711 00ae 04       		.uleb128 0x4
 1712 00af 62020000 		.4byte	.LASF15
 1713 00b3 02       		.byte	0x2
 1714 00b4 A702     		.2byte	0x2a7
 1715 00b6 BA000000 		.4byte	0xba
 1716 00ba 05       		.uleb128 0x5
 1717 00bb 83000000 		.4byte	0x83
 1718 00bf 02       		.uleb128 0x2
 1719 00c0 08       		.byte	0x8
 1720 00c1 04       		.byte	0x4
 1721 00c2 88020000 		.4byte	.LASF16
 1722 00c6 02       		.uleb128 0x2
 1723 00c7 04       		.byte	0x4
 1724 00c8 07       		.byte	0x7
 1725 00c9 68020000 		.4byte	.LASF17
 1726 00cd 06       		.uleb128 0x6
 1727 00ce C5020000 		.4byte	.LASF20
 1728 00d2 01       		.byte	0x1
 1729 00d3 7904     		.2byte	0x479
ARM GAS  C:\Users\tsien\AppData\Local\Temp\ccVzEi8h.s 			page 56


 1730 00d5 83000000 		.4byte	0x83
 1731 00d9 00000000 		.4byte	.LFB15
 1732 00dd 28000000 		.4byte	.LFE15-.LFB15
 1733 00e1 01       		.uleb128 0x1
 1734 00e2 9C       		.byte	0x9c
 1735 00e3 24010000 		.4byte	0x124
 1736 00e7 07       		.uleb128 0x7
 1737 00e8 10020000 		.4byte	.LASF22
 1738 00ec 01       		.byte	0x1
 1739 00ed 7904     		.2byte	0x479
 1740 00ef 24010000 		.4byte	0x124
 1741 00f3 00000000 		.4byte	.LLST0
 1742 00f7 08       		.uleb128 0x8
 1743 00f8 19000000 		.4byte	.LASF18
 1744 00fc 01       		.byte	0x1
 1745 00fd 7B04     		.2byte	0x47b
 1746 00ff 2A010000 		.4byte	0x12a
 1747 0103 01       		.byte	0x1
 1748 0104 09       		.uleb128 0x9
 1749 0105 97040000 		.4byte	.LASF19
 1750 0109 01       		.byte	0x1
 1751 010a 7C04     		.2byte	0x47c
 1752 010c 83000000 		.4byte	0x83
 1753 0110 42000000 		.4byte	.LLST1
 1754 0114 0A       		.uleb128 0xa
 1755 0115 10000000 		.4byte	.LVL3
 1756 0119 CF080000 		.4byte	0x8cf
 1757 011d 0B       		.uleb128 0xb
 1758 011e 01       		.uleb128 0x1
 1759 011f 50       		.byte	0x50
 1760 0120 01       		.uleb128 0x1
 1761 0121 31       		.byte	0x31
 1762 0122 00       		.byte	0
 1763 0123 00       		.byte	0
 1764 0124 0C       		.uleb128 0xc
 1765 0125 04       		.byte	0x4
 1766 0126 83000000 		.4byte	0x83
 1767 012a 0D       		.uleb128 0xd
 1768 012b 77000000 		.4byte	0x77
 1769 012f 06       		.uleb128 0x6
 1770 0130 9E010000 		.4byte	.LASF21
 1771 0134 01       		.byte	0x1
 1772 0135 1904     		.2byte	0x419
 1773 0137 83000000 		.4byte	0x83
 1774 013b 00000000 		.4byte	.LFB14
 1775 013f C4000000 		.4byte	.LFE14-.LFB14
 1776 0143 01       		.uleb128 0x1
 1777 0144 9C       		.byte	0x9c
 1778 0145 83010000 		.4byte	0x183
 1779 0149 07       		.uleb128 0x7
 1780 014a 97040000 		.4byte	.LASF19
 1781 014e 01       		.byte	0x1
 1782 014f 1904     		.2byte	0x419
 1783 0151 83000000 		.4byte	0x83
 1784 0155 61000000 		.4byte	.LLST2
 1785 0159 09       		.uleb128 0x9
 1786 015a 11050000 		.4byte	.LASF23
ARM GAS  C:\Users\tsien\AppData\Local\Temp\ccVzEi8h.s 			page 57


 1787 015e 01       		.byte	0x1
 1788 015f 1B04     		.2byte	0x41b
 1789 0161 83000000 		.4byte	0x83
 1790 0165 9B000000 		.4byte	.LLST3
 1791 0169 09       		.uleb128 0x9
 1792 016a C6010000 		.4byte	.LASF24
 1793 016e 01       		.byte	0x1
 1794 016f 1C04     		.2byte	0x41c
 1795 0171 83000000 		.4byte	0x83
 1796 0175 F5000000 		.4byte	.LLST4
 1797 0179 0E       		.uleb128 0xe
 1798 017a A2000000 		.4byte	.LVL21
 1799 017e DA080000 		.4byte	0x8da
 1800 0182 00       		.byte	0
 1801 0183 0F       		.uleb128 0xf
 1802 0184 35020000 		.4byte	.LASF30
 1803 0188 01       		.byte	0x1
 1804 0189 5901     		.2byte	0x159
 1805 018b 83000000 		.4byte	0x83
 1806 018f 00000000 		.4byte	.LFB2
 1807 0193 C4000000 		.4byte	.LFE2-.LFB2
 1808 0197 01       		.uleb128 0x1
 1809 0198 9C       		.byte	0x9c
 1810 0199 4A020000 		.4byte	0x24a
 1811 019d 07       		.uleb128 0x7
 1812 019e 09030000 		.4byte	.LASF25
 1813 01a2 01       		.byte	0x1
 1814 01a3 5901     		.2byte	0x159
 1815 01a5 83000000 		.4byte	0x83
 1816 01a9 36010000 		.4byte	.LLST5
 1817 01ad 07       		.uleb128 0x7
 1818 01ae 5B020000 		.4byte	.LASF26
 1819 01b2 01       		.byte	0x1
 1820 01b3 5901     		.2byte	0x159
 1821 01b5 83000000 		.4byte	0x83
 1822 01b9 83010000 		.4byte	.LLST6
 1823 01bd 07       		.uleb128 0x7
 1824 01be 86040000 		.4byte	.LASF27
 1825 01c2 01       		.byte	0x1
 1826 01c3 5901     		.2byte	0x159
 1827 01c5 83000000 		.4byte	0x83
 1828 01c9 C5010000 		.4byte	.LLST7
 1829 01cd 09       		.uleb128 0x9
 1830 01ce 18020000 		.4byte	.LASF28
 1831 01d2 01       		.byte	0x1
 1832 01d3 5B01     		.2byte	0x15b
 1833 01d5 83000000 		.4byte	0x83
 1834 01d9 23020000 		.4byte	.LLST8
 1835 01dd 10       		.uleb128 0x10
 1836 01de 20000000 		.4byte	.LBB2
 1837 01e2 6A000000 		.4byte	.LBE2-.LBB2
 1838 01e6 27020000 		.4byte	0x227
 1839 01ea 09       		.uleb128 0x9
 1840 01eb DF030000 		.4byte	.LASF29
 1841 01ef 01       		.byte	0x1
 1842 01f0 6701     		.2byte	0x167
 1843 01f2 83000000 		.4byte	0x83
ARM GAS  C:\Users\tsien\AppData\Local\Temp\ccVzEi8h.s 			page 58


 1844 01f6 7B020000 		.4byte	.LLST9
 1845 01fa 11       		.uleb128 0x11
 1846 01fb 10020000 		.4byte	.LASF22
 1847 01ff 01       		.byte	0x1
 1848 0200 6801     		.2byte	0x168
 1849 0202 83000000 		.4byte	0x83
 1850 0206 02       		.uleb128 0x2
 1851 0207 91       		.byte	0x91
 1852 0208 6C       		.sleb128 -20
 1853 0209 12       		.uleb128 0x12
 1854 020a 7E000000 		.4byte	.LVL39
 1855 020e CD000000 		.4byte	0xcd
 1856 0212 1D020000 		.4byte	0x21d
 1857 0216 0B       		.uleb128 0xb
 1858 0217 01       		.uleb128 0x1
 1859 0218 50       		.byte	0x50
 1860 0219 02       		.uleb128 0x2
 1861 021a 91       		.byte	0x91
 1862 021b 6C       		.sleb128 -20
 1863 021c 00       		.byte	0
 1864 021d 0E       		.uleb128 0xe
 1865 021e 86000000 		.4byte	.LVL41
 1866 0222 2F010000 		.4byte	0x12f
 1867 0226 00       		.byte	0
 1868 0227 12       		.uleb128 0x12
 1869 0228 18000000 		.4byte	.LVL29
 1870 022c E5080000 		.4byte	0x8e5
 1871 0230 3A020000 		.4byte	0x23a
 1872 0234 0B       		.uleb128 0xb
 1873 0235 01       		.uleb128 0x1
 1874 0236 50       		.byte	0x50
 1875 0237 01       		.uleb128 0x1
 1876 0238 3A       		.byte	0x3a
 1877 0239 00       		.byte	0
 1878 023a 0A       		.uleb128 0xa
 1879 023b 92000000 		.4byte	.LVL45
 1880 023f F0080000 		.4byte	0x8f0
 1881 0243 0B       		.uleb128 0xb
 1882 0244 01       		.uleb128 0x1
 1883 0245 50       		.byte	0x50
 1884 0246 01       		.uleb128 0x1
 1885 0247 3A       		.byte	0x3a
 1886 0248 00       		.byte	0
 1887 0249 00       		.byte	0
 1888 024a 0F       		.uleb128 0xf
 1889 024b 39010000 		.4byte	.LASF31
 1890 024f 01       		.byte	0x1
 1891 0250 0B02     		.2byte	0x20b
 1892 0252 83000000 		.4byte	0x83
 1893 0256 00000000 		.4byte	.LFB4
 1894 025a 58000000 		.4byte	.LFE4-.LFB4
 1895 025e 01       		.uleb128 0x1
 1896 025f 9C       		.byte	0x9c
 1897 0260 CB020000 		.4byte	0x2cb
 1898 0264 07       		.uleb128 0x7
 1899 0265 86040000 		.4byte	.LASF27
 1900 0269 01       		.byte	0x1
ARM GAS  C:\Users\tsien\AppData\Local\Temp\ccVzEi8h.s 			page 59


 1901 026a 0B02     		.2byte	0x20b
 1902 026c 83000000 		.4byte	0x83
 1903 0270 AF020000 		.4byte	.LLST10
 1904 0274 09       		.uleb128 0x9
 1905 0275 18020000 		.4byte	.LASF28
 1906 0279 01       		.byte	0x1
 1907 027a 0D02     		.2byte	0x20d
 1908 027c 83000000 		.4byte	0x83
 1909 0280 E9020000 		.4byte	.LLST11
 1910 0284 13       		.uleb128 0x13
 1911 0285 0C000000 		.4byte	.LBB3
 1912 0289 36000000 		.4byte	.LBE3-.LBB3
 1913 028d 09       		.uleb128 0x9
 1914 028e DF030000 		.4byte	.LASF29
 1915 0292 01       		.byte	0x1
 1916 0293 1202     		.2byte	0x212
 1917 0295 83000000 		.4byte	0x83
 1918 0299 1F030000 		.4byte	.LLST12
 1919 029d 11       		.uleb128 0x11
 1920 029e 10020000 		.4byte	.LASF22
 1921 02a2 01       		.byte	0x1
 1922 02a3 1302     		.2byte	0x213
 1923 02a5 83000000 		.4byte	0x83
 1924 02a9 02       		.uleb128 0x2
 1925 02aa 91       		.byte	0x91
 1926 02ab 74       		.sleb128 -12
 1927 02ac 12       		.uleb128 0x12
 1928 02ad 38000000 		.4byte	.LVL55
 1929 02b1 CD000000 		.4byte	0xcd
 1930 02b5 C0020000 		.4byte	0x2c0
 1931 02b9 0B       		.uleb128 0xb
 1932 02ba 01       		.uleb128 0x1
 1933 02bb 50       		.byte	0x50
 1934 02bc 02       		.uleb128 0x2
 1935 02bd 91       		.byte	0x91
 1936 02be 74       		.sleb128 -12
 1937 02bf 00       		.byte	0
 1938 02c0 0E       		.uleb128 0xe
 1939 02c1 40000000 		.4byte	.LVL57
 1940 02c5 2F010000 		.4byte	0x12f
 1941 02c9 00       		.byte	0
 1942 02ca 00       		.byte	0
 1943 02cb 0F       		.uleb128 0xf
 1944 02cc F8040000 		.4byte	.LASF32
 1945 02d0 01       		.byte	0x1
 1946 02d1 4602     		.2byte	0x246
 1947 02d3 83000000 		.4byte	0x83
 1948 02d7 00000000 		.4byte	.LFB5
 1949 02db 48000000 		.4byte	.LFE5-.LFB5
 1950 02df 01       		.uleb128 0x1
 1951 02e0 9C       		.byte	0x9c
 1952 02e1 5C030000 		.4byte	0x35c
 1953 02e5 07       		.uleb128 0x7
 1954 02e6 18040000 		.4byte	.LASF33
 1955 02ea 01       		.byte	0x1
 1956 02eb 4602     		.2byte	0x246
 1957 02ed 83000000 		.4byte	0x83
ARM GAS  C:\Users\tsien\AppData\Local\Temp\ccVzEi8h.s 			page 60


 1958 02f1 48030000 		.4byte	.LLST13
 1959 02f5 07       		.uleb128 0x7
 1960 02f6 86040000 		.4byte	.LASF27
 1961 02fa 01       		.byte	0x1
 1962 02fb 4602     		.2byte	0x246
 1963 02fd 83000000 		.4byte	0x83
 1964 0301 82030000 		.4byte	.LLST14
 1965 0305 09       		.uleb128 0x9
 1966 0306 18020000 		.4byte	.LASF28
 1967 030a 01       		.byte	0x1
 1968 030b 4802     		.2byte	0x248
 1969 030d 83000000 		.4byte	0x83
 1970 0311 BC030000 		.4byte	.LLST15
 1971 0315 13       		.uleb128 0x13
 1972 0316 0C000000 		.4byte	.LBB4
 1973 031a 28000000 		.4byte	.LBE4-.LBB4
 1974 031e 09       		.uleb128 0x9
 1975 031f DF030000 		.4byte	.LASF29
 1976 0323 01       		.byte	0x1
 1977 0324 4D02     		.2byte	0x24d
 1978 0326 83000000 		.4byte	0x83
 1979 032a F2030000 		.4byte	.LLST16
 1980 032e 11       		.uleb128 0x11
 1981 032f 10020000 		.4byte	.LASF22
 1982 0333 01       		.byte	0x1
 1983 0334 4E02     		.2byte	0x24e
 1984 0336 83000000 		.4byte	0x83
 1985 033a 02       		.uleb128 0x2
 1986 033b 91       		.byte	0x91
 1987 033c 74       		.sleb128 -12
 1988 033d 12       		.uleb128 0x12
 1989 033e 2A000000 		.4byte	.LVL66
 1990 0342 CD000000 		.4byte	0xcd
 1991 0346 51030000 		.4byte	0x351
 1992 034a 0B       		.uleb128 0xb
 1993 034b 01       		.uleb128 0x1
 1994 034c 50       		.byte	0x50
 1995 034d 02       		.uleb128 0x2
 1996 034e 91       		.byte	0x91
 1997 034f 74       		.sleb128 -12
 1998 0350 00       		.byte	0
 1999 0351 0E       		.uleb128 0xe
 2000 0352 32000000 		.4byte	.LVL68
 2001 0356 2F010000 		.4byte	0x12f
 2002 035a 00       		.byte	0
 2003 035b 00       		.byte	0
 2004 035c 0F       		.uleb128 0xf
 2005 035d D5000000 		.4byte	.LASF34
 2006 0361 01       		.byte	0x1
 2007 0362 8D02     		.2byte	0x28d
 2008 0364 83000000 		.4byte	0x83
 2009 0368 00000000 		.4byte	.LFB6
 2010 036c 7C000000 		.4byte	.LFE6-.LFB6
 2011 0370 01       		.uleb128 0x1
 2012 0371 9C       		.byte	0x9c
 2013 0372 0D040000 		.4byte	0x40d
 2014 0376 07       		.uleb128 0x7
ARM GAS  C:\Users\tsien\AppData\Local\Temp\ccVzEi8h.s 			page 61


 2015 0377 08020000 		.4byte	.LASF35
 2016 037b 01       		.byte	0x1
 2017 037c 8D02     		.2byte	0x28d
 2018 037e 83000000 		.4byte	0x83
 2019 0382 1B040000 		.4byte	.LLST17
 2020 0386 07       		.uleb128 0x7
 2021 0387 21000000 		.4byte	.LASF36
 2022 038b 01       		.byte	0x1
 2023 038c 8D02     		.2byte	0x28d
 2024 038e 0D040000 		.4byte	0x40d
 2025 0392 5D040000 		.4byte	.LLST18
 2026 0396 07       		.uleb128 0x7
 2027 0397 86040000 		.4byte	.LASF27
 2028 039b 01       		.byte	0x1
 2029 039c 8D02     		.2byte	0x28d
 2030 039e 83000000 		.4byte	0x83
 2031 03a2 9F040000 		.4byte	.LLST19
 2032 03a6 09       		.uleb128 0x9
 2033 03a7 18020000 		.4byte	.LASF28
 2034 03ab 01       		.byte	0x1
 2035 03ac 8F02     		.2byte	0x28f
 2036 03ae 83000000 		.4byte	0x83
 2037 03b2 D9040000 		.4byte	.LLST20
 2038 03b6 13       		.uleb128 0x13
 2039 03b7 10000000 		.4byte	.LBB5
 2040 03bb 4E000000 		.4byte	.LBE5-.LBB5
 2041 03bf 09       		.uleb128 0x9
 2042 03c0 DF030000 		.4byte	.LASF29
 2043 03c4 01       		.byte	0x1
 2044 03c5 9402     		.2byte	0x294
 2045 03c7 83000000 		.4byte	0x83
 2046 03cb 0F050000 		.4byte	.LLST21
 2047 03cf 09       		.uleb128 0x9
 2048 03d0 04010000 		.4byte	.LASF37
 2049 03d4 01       		.byte	0x1
 2050 03d5 9502     		.2byte	0x295
 2051 03d7 83000000 		.4byte	0x83
 2052 03db 38050000 		.4byte	.LLST22
 2053 03df 11       		.uleb128 0x11
 2054 03e0 10020000 		.4byte	.LASF22
 2055 03e4 01       		.byte	0x1
 2056 03e5 9602     		.2byte	0x296
 2057 03e7 83000000 		.4byte	0x83
 2058 03eb 02       		.uleb128 0x2
 2059 03ec 91       		.byte	0x91
 2060 03ed 64       		.sleb128 -28
 2061 03ee 12       		.uleb128 0x12
 2062 03ef 32000000 		.4byte	.LVL78
 2063 03f3 CD000000 		.4byte	0xcd
 2064 03f7 02040000 		.4byte	0x402
 2065 03fb 0B       		.uleb128 0xb
 2066 03fc 01       		.uleb128 0x1
 2067 03fd 50       		.byte	0x50
 2068 03fe 02       		.uleb128 0x2
 2069 03ff 91       		.byte	0x91
 2070 0400 64       		.sleb128 -28
 2071 0401 00       		.byte	0
ARM GAS  C:\Users\tsien\AppData\Local\Temp\ccVzEi8h.s 			page 62


 2072 0402 0E       		.uleb128 0xe
 2073 0403 4E000000 		.4byte	.LVL80
 2074 0407 2F010000 		.4byte	0x12f
 2075 040b 00       		.byte	0
 2076 040c 00       		.byte	0
 2077 040d 0C       		.uleb128 0xc
 2078 040e 04       		.byte	0x4
 2079 040f 6B000000 		.4byte	0x6b
 2080 0413 14       		.uleb128 0x14
 2081 0414 FA030000 		.4byte	.LASF38
 2082 0418 01       		.byte	0x1
 2083 0419 D102     		.2byte	0x2d1
 2084 041b 83000000 		.4byte	0x83
 2085 041f 00000000 		.4byte	.LFB7
 2086 0423 0C000000 		.4byte	.LFE7-.LFB7
 2087 0427 01       		.uleb128 0x1
 2088 0428 9C       		.byte	0x9c
 2089 0429 14       		.uleb128 0x14
 2090 042a 28000000 		.4byte	.LASF39
 2091 042e 01       		.byte	0x1
 2092 042f EC02     		.2byte	0x2ec
 2093 0431 83000000 		.4byte	0x83
 2094 0435 00000000 		.4byte	.LFB8
 2095 0439 0C000000 		.4byte	.LFE8-.LFB8
 2096 043d 01       		.uleb128 0x1
 2097 043e 9C       		.byte	0x9c
 2098 043f 15       		.uleb128 0x15
 2099 0440 7B010000 		.4byte	.LASF40
 2100 0444 01       		.byte	0x1
 2101 0445 FE02     		.2byte	0x2fe
 2102 0447 00000000 		.4byte	.LFB9
 2103 044b 28000000 		.4byte	.LFE9-.LFB9
 2104 044f 01       		.uleb128 0x1
 2105 0450 9C       		.byte	0x9c
 2106 0451 78040000 		.4byte	0x478
 2107 0455 12       		.uleb128 0x12
 2108 0456 08000000 		.4byte	.LVL85
 2109 045a E5080000 		.4byte	0x8e5
 2110 045e 68040000 		.4byte	0x468
 2111 0462 0B       		.uleb128 0xb
 2112 0463 01       		.uleb128 0x1
 2113 0464 50       		.byte	0x50
 2114 0465 01       		.uleb128 0x1
 2115 0466 3A       		.byte	0x3a
 2116 0467 00       		.byte	0
 2117 0468 0A       		.uleb128 0xa
 2118 0469 1E000000 		.4byte	.LVL86
 2119 046d F0080000 		.4byte	0x8f0
 2120 0471 0B       		.uleb128 0xb
 2121 0472 01       		.uleb128 0x1
 2122 0473 50       		.byte	0x50
 2123 0474 01       		.uleb128 0x1
 2124 0475 3A       		.byte	0x3a
 2125 0476 00       		.byte	0
 2126 0477 00       		.byte	0
 2127 0478 15       		.uleb128 0x15
 2128 0479 9E040000 		.4byte	.LASF41
ARM GAS  C:\Users\tsien\AppData\Local\Temp\ccVzEi8h.s 			page 63


 2129 047d 01       		.byte	0x1
 2130 047e 1503     		.2byte	0x315
 2131 0480 00000000 		.4byte	.LFB10
 2132 0484 28000000 		.4byte	.LFE10-.LFB10
 2133 0488 01       		.uleb128 0x1
 2134 0489 9C       		.byte	0x9c
 2135 048a B1040000 		.4byte	0x4b1
 2136 048e 12       		.uleb128 0x12
 2137 048f 08000000 		.4byte	.LVL87
 2138 0493 E5080000 		.4byte	0x8e5
 2139 0497 A1040000 		.4byte	0x4a1
 2140 049b 0B       		.uleb128 0xb
 2141 049c 01       		.uleb128 0x1
 2142 049d 50       		.byte	0x50
 2143 049e 01       		.uleb128 0x1
 2144 049f 3A       		.byte	0x3a
 2145 04a0 00       		.byte	0
 2146 04a1 0A       		.uleb128 0xa
 2147 04a2 1E000000 		.4byte	.LVL88
 2148 04a6 F0080000 		.4byte	0x8f0
 2149 04aa 0B       		.uleb128 0xb
 2150 04ab 01       		.uleb128 0x1
 2151 04ac 50       		.byte	0x50
 2152 04ad 01       		.uleb128 0x1
 2153 04ae 3A       		.byte	0x3a
 2154 04af 00       		.byte	0
 2155 04b0 00       		.byte	0
 2156 04b1 0F       		.uleb128 0xf
 2157 04b2 A9020000 		.4byte	.LASF42
 2158 04b6 01       		.byte	0x1
 2159 04b7 4903     		.2byte	0x349
 2160 04b9 83000000 		.4byte	0x83
 2161 04bd 00000000 		.4byte	.LFB11
 2162 04c1 30000000 		.4byte	.LFE11-.LFB11
 2163 04c5 01       		.uleb128 0x1
 2164 04c6 9C       		.byte	0x9c
 2165 04c7 FE040000 		.4byte	0x4fe
 2166 04cb 09       		.uleb128 0x9
 2167 04cc 97040000 		.4byte	.LASF19
 2168 04d0 01       		.byte	0x1
 2169 04d1 4B03     		.2byte	0x34b
 2170 04d3 83000000 		.4byte	0x83
 2171 04d7 4B050000 		.4byte	.LLST23
 2172 04db 12       		.uleb128 0x12
 2173 04dc 08000000 		.4byte	.LVL89
 2174 04e0 E5080000 		.4byte	0x8e5
 2175 04e4 EE040000 		.4byte	0x4ee
 2176 04e8 0B       		.uleb128 0xb
 2177 04e9 01       		.uleb128 0x1
 2178 04ea 50       		.byte	0x50
 2179 04eb 01       		.uleb128 0x1
 2180 04ec 3A       		.byte	0x3a
 2181 04ed 00       		.byte	0
 2182 04ee 0A       		.uleb128 0xa
 2183 04ef 24000000 		.4byte	.LVL93
 2184 04f3 F0080000 		.4byte	0x8f0
 2185 04f7 0B       		.uleb128 0xb
ARM GAS  C:\Users\tsien\AppData\Local\Temp\ccVzEi8h.s 			page 64


 2186 04f8 01       		.uleb128 0x1
 2187 04f9 50       		.byte	0x50
 2188 04fa 01       		.uleb128 0x1
 2189 04fb 3A       		.byte	0x3a
 2190 04fc 00       		.byte	0
 2191 04fd 00       		.byte	0
 2192 04fe 0F       		.uleb128 0xf
 2193 04ff EE020000 		.4byte	.LASF43
 2194 0503 01       		.byte	0x1
 2195 0504 6B03     		.2byte	0x36b
 2196 0506 83000000 		.4byte	0x83
 2197 050a 00000000 		.4byte	.LFB12
 2198 050e 20000000 		.4byte	.LFE12-.LFB12
 2199 0512 01       		.uleb128 0x1
 2200 0513 9C       		.byte	0x9c
 2201 0514 4B050000 		.4byte	0x54b
 2202 0518 09       		.uleb128 0x9
 2203 0519 97040000 		.4byte	.LASF19
 2204 051d 01       		.byte	0x1
 2205 051e 6D03     		.2byte	0x36d
 2206 0520 83000000 		.4byte	0x83
 2207 0524 74050000 		.4byte	.LLST24
 2208 0528 12       		.uleb128 0x12
 2209 0529 08000000 		.4byte	.LVL95
 2210 052d E5080000 		.4byte	0x8e5
 2211 0531 3B050000 		.4byte	0x53b
 2212 0535 0B       		.uleb128 0xb
 2213 0536 01       		.uleb128 0x1
 2214 0537 50       		.byte	0x50
 2215 0538 01       		.uleb128 0x1
 2216 0539 3A       		.byte	0x3a
 2217 053a 00       		.byte	0
 2218 053b 0A       		.uleb128 0xa
 2219 053c 18000000 		.4byte	.LVL97
 2220 0540 F0080000 		.4byte	0x8f0
 2221 0544 0B       		.uleb128 0xb
 2222 0545 01       		.uleb128 0x1
 2223 0546 50       		.byte	0x50
 2224 0547 01       		.uleb128 0x1
 2225 0548 3A       		.byte	0x3a
 2226 0549 00       		.byte	0
 2227 054a 00       		.byte	0
 2228 054b 15       		.uleb128 0x15
 2229 054c 57040000 		.4byte	.LASF44
 2230 0550 01       		.byte	0x1
 2231 0551 9703     		.2byte	0x397
 2232 0553 00000000 		.4byte	.LFB13
 2233 0557 C4000000 		.4byte	.LFE13-.LFB13
 2234 055b 01       		.uleb128 0x1
 2235 055c 9C       		.byte	0x9c
 2236 055d 5B060000 		.4byte	0x65b
 2237 0561 08       		.uleb128 0x8
 2238 0562 19000000 		.4byte	.LASF18
 2239 0566 01       		.byte	0x1
 2240 0567 A003     		.2byte	0x3a0
 2241 0569 2A010000 		.4byte	0x12a
 2242 056d 01       		.byte	0x1
ARM GAS  C:\Users\tsien\AppData\Local\Temp\ccVzEi8h.s 			page 65


 2243 056e 09       		.uleb128 0x9
 2244 056f 10020000 		.4byte	.LASF22
 2245 0573 01       		.byte	0x1
 2246 0574 A103     		.2byte	0x3a1
 2247 0576 83000000 		.4byte	0x83
 2248 057a 92050000 		.4byte	.LLST25
 2249 057e 09       		.uleb128 0x9
 2250 057f E0020000 		.4byte	.LASF45
 2251 0583 01       		.byte	0x1
 2252 0584 A403     		.2byte	0x3a4
 2253 0586 83000000 		.4byte	0x83
 2254 058a E5050000 		.4byte	.LLST26
 2255 058e 12       		.uleb128 0x12
 2256 058f 14000000 		.4byte	.LVL102
 2257 0593 CF080000 		.4byte	0x8cf
 2258 0597 A1050000 		.4byte	0x5a1
 2259 059b 0B       		.uleb128 0xb
 2260 059c 01       		.uleb128 0x1
 2261 059d 50       		.byte	0x50
 2262 059e 01       		.uleb128 0x1
 2263 059f 31       		.byte	0x31
 2264 05a0 00       		.byte	0
 2265 05a1 0E       		.uleb128 0xe
 2266 05a2 1A000000 		.4byte	.LVL104
 2267 05a6 FB080000 		.4byte	0x8fb
 2268 05aa 12       		.uleb128 0x12
 2269 05ab 2C000000 		.4byte	.LVL106
 2270 05af 06090000 		.4byte	0x906
 2271 05b3 BD050000 		.4byte	0x5bd
 2272 05b7 0B       		.uleb128 0xb
 2273 05b8 01       		.uleb128 0x1
 2274 05b9 50       		.byte	0x50
 2275 05ba 01       		.uleb128 0x1
 2276 05bb 30       		.byte	0x30
 2277 05bc 00       		.byte	0
 2278 05bd 12       		.uleb128 0x12
 2279 05be 4A000000 		.4byte	.LVL107
 2280 05c2 06090000 		.4byte	0x906
 2281 05c6 D0050000 		.4byte	0x5d0
 2282 05ca 0B       		.uleb128 0xb
 2283 05cb 01       		.uleb128 0x1
 2284 05cc 50       		.byte	0x50
 2285 05cd 01       		.uleb128 0x1
 2286 05ce 30       		.byte	0x30
 2287 05cf 00       		.byte	0
 2288 05d0 12       		.uleb128 0x12
 2289 05d1 50000000 		.4byte	.LVL108
 2290 05d5 CF080000 		.4byte	0x8cf
 2291 05d9 E3050000 		.4byte	0x5e3
 2292 05dd 0B       		.uleb128 0xb
 2293 05de 01       		.uleb128 0x1
 2294 05df 50       		.byte	0x50
 2295 05e0 01       		.uleb128 0x1
 2296 05e1 3A       		.byte	0x3a
 2297 05e2 00       		.byte	0
 2298 05e3 12       		.uleb128 0x12
 2299 05e4 56000000 		.4byte	.LVL109
ARM GAS  C:\Users\tsien\AppData\Local\Temp\ccVzEi8h.s 			page 66


 2300 05e8 06090000 		.4byte	0x906
 2301 05ec F6050000 		.4byte	0x5f6
 2302 05f0 0B       		.uleb128 0xb
 2303 05f1 01       		.uleb128 0x1
 2304 05f2 50       		.byte	0x50
 2305 05f3 01       		.uleb128 0x1
 2306 05f4 31       		.byte	0x31
 2307 05f5 00       		.byte	0
 2308 05f6 12       		.uleb128 0x12
 2309 05f7 5C000000 		.4byte	.LVL110
 2310 05fb CF080000 		.4byte	0x8cf
 2311 05ff 09060000 		.4byte	0x609
 2312 0603 0B       		.uleb128 0xb
 2313 0604 01       		.uleb128 0x1
 2314 0605 50       		.byte	0x50
 2315 0606 01       		.uleb128 0x1
 2316 0607 3A       		.byte	0x3a
 2317 0608 00       		.byte	0
 2318 0609 12       		.uleb128 0x12
 2319 060a 66000000 		.4byte	.LVL112
 2320 060e CF080000 		.4byte	0x8cf
 2321 0612 1C060000 		.4byte	0x61c
 2322 0616 0B       		.uleb128 0xb
 2323 0617 01       		.uleb128 0x1
 2324 0618 50       		.byte	0x50
 2325 0619 01       		.uleb128 0x1
 2326 061a 31       		.byte	0x31
 2327 061b 00       		.byte	0
 2328 061c 0E       		.uleb128 0xe
 2329 061d 6C000000 		.4byte	.LVL114
 2330 0621 11090000 		.4byte	0x911
 2331 0625 12       		.uleb128 0x12
 2332 0626 82000000 		.4byte	.LVL117
 2333 062a 06090000 		.4byte	0x906
 2334 062e 38060000 		.4byte	0x638
 2335 0632 0B       		.uleb128 0xb
 2336 0633 01       		.uleb128 0x1
 2337 0634 50       		.byte	0x50
 2338 0635 01       		.uleb128 0x1
 2339 0636 30       		.byte	0x30
 2340 0637 00       		.byte	0
 2341 0638 12       		.uleb128 0x12
 2342 0639 88000000 		.4byte	.LVL118
 2343 063d CF080000 		.4byte	0x8cf
 2344 0641 4B060000 		.4byte	0x64b
 2345 0645 0B       		.uleb128 0xb
 2346 0646 01       		.uleb128 0x1
 2347 0647 50       		.byte	0x50
 2348 0648 01       		.uleb128 0x1
 2349 0649 3A       		.byte	0x3a
 2350 064a 00       		.byte	0
 2351 064b 0A       		.uleb128 0xa
 2352 064c AE000000 		.4byte	.LVL119
 2353 0650 06090000 		.4byte	0x906
 2354 0654 0B       		.uleb128 0xb
 2355 0655 01       		.uleb128 0x1
 2356 0656 50       		.byte	0x50
ARM GAS  C:\Users\tsien\AppData\Local\Temp\ccVzEi8h.s 			page 67


 2357 0657 01       		.uleb128 0x1
 2358 0658 31       		.byte	0x31
 2359 0659 00       		.byte	0
 2360 065a 00       		.byte	0
 2361 065b 16       		.uleb128 0x16
 2362 065c C7030000 		.4byte	.LASF46
 2363 0660 01       		.byte	0x1
 2364 0661 67       		.byte	0x67
 2365 0662 83000000 		.4byte	0x83
 2366 0666 00000000 		.4byte	.LFB0
 2367 066a F8000000 		.4byte	.LFE0-.LFB0
 2368 066e 01       		.uleb128 0x1
 2369 066f 9C       		.byte	0x9c
 2370 0670 EB060000 		.4byte	0x6eb
 2371 0674 17       		.uleb128 0x17
 2372 0675 09030000 		.4byte	.LASF25
 2373 0679 01       		.byte	0x1
 2374 067a 67       		.byte	0x67
 2375 067b 83000000 		.4byte	0x83
 2376 067f F8050000 		.4byte	.LLST27
 2377 0683 17       		.uleb128 0x17
 2378 0684 90040000 		.4byte	.LASF47
 2379 0688 01       		.byte	0x1
 2380 0689 67       		.byte	0x67
 2381 068a 0D040000 		.4byte	0x40d
 2382 068e 50060000 		.4byte	.LLST28
 2383 0692 18       		.uleb128 0x18
 2384 0693 636E7400 		.ascii	"cnt\000"
 2385 0697 01       		.byte	0x1
 2386 0698 67       		.byte	0x67
 2387 0699 83000000 		.4byte	0x83
 2388 069d CD060000 		.4byte	.LLST29
 2389 06a1 17       		.uleb128 0x17
 2390 06a2 24040000 		.4byte	.LASF48
 2391 06a6 01       		.byte	0x1
 2392 06a7 67       		.byte	0x67
 2393 06a8 83000000 		.4byte	0x83
 2394 06ac 3B070000 		.4byte	.LLST30
 2395 06b0 19       		.uleb128 0x19
 2396 06b1 18020000 		.4byte	.LASF28
 2397 06b5 01       		.byte	0x1
 2398 06b6 69       		.byte	0x69
 2399 06b7 83000000 		.4byte	0x83
 2400 06bb 7D070000 		.4byte	.LLST31
 2401 06bf 12       		.uleb128 0x12
 2402 06c0 1E000000 		.4byte	.LVL126
 2403 06c4 E5080000 		.4byte	0x8e5
 2404 06c8 D2060000 		.4byte	0x6d2
 2405 06cc 0B       		.uleb128 0xb
 2406 06cd 01       		.uleb128 0x1
 2407 06ce 50       		.byte	0x50
 2408 06cf 01       		.uleb128 0x1
 2409 06d0 3A       		.byte	0x3a
 2410 06d1 00       		.byte	0
 2411 06d2 0E       		.uleb128 0xe
 2412 06d3 9E000000 		.4byte	.LVL138
 2413 06d7 4B050000 		.4byte	0x54b
ARM GAS  C:\Users\tsien\AppData\Local\Temp\ccVzEi8h.s 			page 68


 2414 06db 0A       		.uleb128 0xa
 2415 06dc B4000000 		.4byte	.LVL140
 2416 06e0 F0080000 		.4byte	0x8f0
 2417 06e4 0B       		.uleb128 0xb
 2418 06e5 01       		.uleb128 0x1
 2419 06e6 50       		.byte	0x50
 2420 06e7 01       		.uleb128 0x1
 2421 06e8 3A       		.byte	0x3a
 2422 06e9 00       		.byte	0
 2423 06ea 00       		.byte	0
 2424 06eb 16       		.uleb128 0x16
 2425 06ec 71020000 		.4byte	.LASF49
 2426 06f0 01       		.byte	0x1
 2427 06f1 D5       		.byte	0xd5
 2428 06f2 83000000 		.4byte	0x83
 2429 06f6 00000000 		.4byte	.LFB1
 2430 06fa 08010000 		.4byte	.LFE1-.LFB1
 2431 06fe 01       		.uleb128 0x1
 2432 06ff 9C       		.byte	0x9c
 2433 0700 7B070000 		.4byte	0x77b
 2434 0704 17       		.uleb128 0x17
 2435 0705 09030000 		.4byte	.LASF25
 2436 0709 01       		.byte	0x1
 2437 070a D5       		.byte	0xd5
 2438 070b 83000000 		.4byte	0x83
 2439 070f BF070000 		.4byte	.LLST32
 2440 0713 17       		.uleb128 0x17
 2441 0714 29010000 		.4byte	.LASF50
 2442 0718 01       		.byte	0x1
 2443 0719 D5       		.byte	0xd5
 2444 071a 0D040000 		.4byte	0x40d
 2445 071e 17080000 		.4byte	.LLST33
 2446 0722 18       		.uleb128 0x18
 2447 0723 636E7400 		.ascii	"cnt\000"
 2448 0727 01       		.byte	0x1
 2449 0728 D5       		.byte	0xd5
 2450 0729 83000000 		.4byte	0x83
 2451 072d 94080000 		.4byte	.LLST34
 2452 0731 17       		.uleb128 0x17
 2453 0732 24040000 		.4byte	.LASF48
 2454 0736 01       		.byte	0x1
 2455 0737 D5       		.byte	0xd5
 2456 0738 83000000 		.4byte	0x83
 2457 073c 02090000 		.4byte	.LLST35
 2458 0740 19       		.uleb128 0x19
 2459 0741 18020000 		.4byte	.LASF28
 2460 0745 01       		.byte	0x1
 2461 0746 D7       		.byte	0xd7
 2462 0747 83000000 		.4byte	0x83
 2463 074b 44090000 		.4byte	.LLST36
 2464 074f 12       		.uleb128 0x12
 2465 0750 1E000000 		.4byte	.LVL148
 2466 0754 E5080000 		.4byte	0x8e5
 2467 0758 62070000 		.4byte	0x762
 2468 075c 0B       		.uleb128 0xb
 2469 075d 01       		.uleb128 0x1
 2470 075e 50       		.byte	0x50
ARM GAS  C:\Users\tsien\AppData\Local\Temp\ccVzEi8h.s 			page 69


 2471 075f 01       		.uleb128 0x1
 2472 0760 3A       		.byte	0x3a
 2473 0761 00       		.byte	0
 2474 0762 0E       		.uleb128 0xe
 2475 0763 B2000000 		.4byte	.LVL160
 2476 0767 4B050000 		.4byte	0x54b
 2477 076b 0A       		.uleb128 0xa
 2478 076c C8000000 		.4byte	.LVL162
 2479 0770 F0080000 		.4byte	0x8f0
 2480 0774 0B       		.uleb128 0xb
 2481 0775 01       		.uleb128 0x1
 2482 0776 50       		.byte	0x50
 2483 0777 01       		.uleb128 0x1
 2484 0778 3A       		.byte	0x3a
 2485 0779 00       		.byte	0
 2486 077a 00       		.byte	0
 2487 077b 0F       		.uleb128 0xf
 2488 077c 1B050000 		.4byte	.LASF51
 2489 0780 01       		.byte	0x1
 2490 0781 BC01     		.2byte	0x1bc
 2491 0783 83000000 		.4byte	0x83
 2492 0787 00000000 		.4byte	.LFB3
 2493 078b 68000000 		.4byte	.LFE3-.LFB3
 2494 078f 01       		.uleb128 0x1
 2495 0790 9C       		.byte	0x9c
 2496 0791 25080000 		.4byte	0x825
 2497 0795 07       		.uleb128 0x7
 2498 0796 09030000 		.4byte	.LASF25
 2499 079a 01       		.byte	0x1
 2500 079b BC01     		.2byte	0x1bc
 2501 079d 83000000 		.4byte	0x83
 2502 07a1 86090000 		.4byte	.LLST37
 2503 07a5 07       		.uleb128 0x7
 2504 07a6 5B020000 		.4byte	.LASF26
 2505 07aa 01       		.byte	0x1
 2506 07ab BC01     		.2byte	0x1bc
 2507 07ad 83000000 		.4byte	0x83
 2508 07b1 BD090000 		.4byte	.LLST38
 2509 07b5 07       		.uleb128 0x7
 2510 07b6 86040000 		.4byte	.LASF27
 2511 07ba 01       		.byte	0x1
 2512 07bb BC01     		.2byte	0x1bc
 2513 07bd 83000000 		.4byte	0x83
 2514 07c1 F7090000 		.4byte	.LLST39
 2515 07c5 09       		.uleb128 0x9
 2516 07c6 18020000 		.4byte	.LASF28
 2517 07ca 01       		.byte	0x1
 2518 07cb BE01     		.2byte	0x1be
 2519 07cd 83000000 		.4byte	0x83
 2520 07d1 310A0000 		.4byte	.LLST40
 2521 07d5 13       		.uleb128 0x13
 2522 07d6 0C000000 		.4byte	.LBB6
 2523 07da 48000000 		.4byte	.LBE6-.LBB6
 2524 07de 09       		.uleb128 0x9
 2525 07df DF030000 		.4byte	.LASF29
 2526 07e3 01       		.byte	0x1
 2527 07e4 C301     		.2byte	0x1c3
ARM GAS  C:\Users\tsien\AppData\Local\Temp\ccVzEi8h.s 			page 70


 2528 07e6 83000000 		.4byte	0x83
 2529 07ea 670A0000 		.4byte	.LLST41
 2530 07ee 11       		.uleb128 0x11
 2531 07ef 10020000 		.4byte	.LASF22
 2532 07f3 01       		.byte	0x1
 2533 07f4 C401     		.2byte	0x1c4
 2534 07f6 83000000 		.4byte	0x83
 2535 07fa 02       		.uleb128 0x2
 2536 07fb 91       		.byte	0x91
 2537 07fc 74       		.sleb128 -12
 2538 07fd 0E       		.uleb128 0xe
 2539 07fe 34000000 		.4byte	.LVL172
 2540 0802 4B050000 		.4byte	0x54b
 2541 0806 12       		.uleb128 0x12
 2542 0807 4A000000 		.4byte	.LVL176
 2543 080b CD000000 		.4byte	0xcd
 2544 080f 1A080000 		.4byte	0x81a
 2545 0813 0B       		.uleb128 0xb
 2546 0814 01       		.uleb128 0x1
 2547 0815 50       		.byte	0x50
 2548 0816 02       		.uleb128 0x2
 2549 0817 91       		.byte	0x91
 2550 0818 74       		.sleb128 -12
 2551 0819 00       		.byte	0
 2552 081a 0E       		.uleb128 0xe
 2553 081b 52000000 		.4byte	.LVL178
 2554 081f 2F010000 		.4byte	0x12f
 2555 0823 00       		.byte	0
 2556 0824 00       		.byte	0
 2557 0825 1A       		.uleb128 0x1a
 2558 0826 BA010000 		.4byte	.LASF52
 2559 082a 03       		.byte	0x3
 2560 082b 1E       		.byte	0x1e
 2561 082c A4000000 		.4byte	0xa4
 2562 0830 1B       		.uleb128 0x1b
 2563 0831 E9030000 		.4byte	.LASF53
 2564 0835 01       		.byte	0x1
 2565 0836 1D       		.byte	0x1d
 2566 0837 A9000000 		.4byte	0xa9
 2567 083b 05       		.uleb128 0x5
 2568 083c 03       		.byte	0x3
 2569 083d 00000000 		.4byte	Jetty_mstrStatus
 2570 0841 1B       		.uleb128 0x1b
 2571 0842 07000000 		.4byte	.LASF54
 2572 0846 01       		.byte	0x1
 2573 0847 1E       		.byte	0x1e
 2574 0848 A4000000 		.4byte	0xa4
 2575 084c 05       		.uleb128 0x5
 2576 084d 03       		.byte	0x3
 2577 084e 00000000 		.4byte	Jetty_mstrControl
 2578 0852 1B       		.uleb128 0x1b
 2579 0853 BB040000 		.4byte	.LASF55
 2580 0857 01       		.byte	0x1
 2581 0858 21       		.byte	0x21
 2582 0859 63080000 		.4byte	0x863
 2583 085d 05       		.uleb128 0x5
 2584 085e 03       		.byte	0x3
ARM GAS  C:\Users\tsien\AppData\Local\Temp\ccVzEi8h.s 			page 71


 2585 085f 00000000 		.4byte	Jetty_mstrRdBufPtr
 2586 0863 0C       		.uleb128 0xc
 2587 0864 04       		.byte	0x4
 2588 0865 A4000000 		.4byte	0xa4
 2589 0869 1B       		.uleb128 0x1b
 2590 086a B3030000 		.4byte	.LASF56
 2591 086e 01       		.byte	0x1
 2592 086f 22       		.byte	0x22
 2593 0870 BA000000 		.4byte	0xba
 2594 0874 05       		.uleb128 0x5
 2595 0875 03       		.byte	0x3
 2596 0876 00000000 		.4byte	Jetty_mstrRdBufSize
 2597 087a 1B       		.uleb128 0x1b
 2598 087b 94020000 		.4byte	.LASF57
 2599 087f 01       		.byte	0x1
 2600 0880 23       		.byte	0x23
 2601 0881 BA000000 		.4byte	0xba
 2602 0885 05       		.uleb128 0x5
 2603 0886 03       		.byte	0x3
 2604 0887 00000000 		.4byte	Jetty_mstrRdBufIndex
 2605 088b 1B       		.uleb128 0x1b
 2606 088c 51010000 		.4byte	.LASF58
 2607 0890 01       		.byte	0x1
 2608 0891 26       		.byte	0x26
 2609 0892 63080000 		.4byte	0x863
 2610 0896 05       		.uleb128 0x5
 2611 0897 03       		.byte	0x3
 2612 0898 00000000 		.4byte	Jetty_mstrWrBufPtr
 2613 089c 1B       		.uleb128 0x1b
 2614 089d 72040000 		.4byte	.LASF59
 2615 08a1 01       		.byte	0x1
 2616 08a2 27       		.byte	0x27
 2617 08a3 BA000000 		.4byte	0xba
 2618 08a7 05       		.uleb128 0x5
 2619 08a8 03       		.byte	0x3
 2620 08a9 00000000 		.4byte	Jetty_mstrWrBufSize
 2621 08ad 1B       		.uleb128 0x1b
 2622 08ae 2E030000 		.4byte	.LASF60
 2623 08b2 01       		.byte	0x1
 2624 08b3 28       		.byte	0x28
 2625 08b4 BA000000 		.4byte	0xba
 2626 08b8 05       		.uleb128 0x5
 2627 08b9 03       		.byte	0x3
 2628 08ba 00000000 		.4byte	Jetty_mstrWrBufIndex
 2629 08be 1B       		.uleb128 0x1b
 2630 08bf D1010000 		.4byte	.LASF61
 2631 08c3 01       		.byte	0x1
 2632 08c4 29       		.byte	0x29
 2633 08c5 BA000000 		.4byte	0xba
 2634 08c9 05       		.uleb128 0x5
 2635 08ca 03       		.byte	0x3
 2636 08cb 00000000 		.4byte	Jetty_mstrWrBufIndexTmp
 2637 08cf 1C       		.uleb128 0x1c
 2638 08d0 6A010000 		.4byte	.LASF62
 2639 08d4 6A010000 		.4byte	.LASF62
 2640 08d8 04       		.byte	0x4
 2641 08d9 ED       		.byte	0xed
ARM GAS  C:\Users\tsien\AppData\Local\Temp\ccVzEi8h.s 			page 72


 2642 08da 1C       		.uleb128 0x1c
 2643 08db 36050000 		.4byte	.LASF63
 2644 08df 36050000 		.4byte	.LASF63
 2645 08e3 03       		.byte	0x3
 2646 08e4 4D       		.byte	0x4d
 2647 08e5 1C       		.uleb128 0x1c
 2648 08e6 4E020000 		.4byte	.LASF64
 2649 08ea 4E020000 		.4byte	.LASF64
 2650 08ee 04       		.byte	0x4
 2651 08ef D8       		.byte	0xd8
 2652 08f0 1C       		.uleb128 0x1c
 2653 08f1 43030000 		.4byte	.LASF65
 2654 08f5 43030000 		.4byte	.LASF65
 2655 08f9 04       		.byte	0x4
 2656 08fa D6       		.byte	0xd6
 2657 08fb 1C       		.uleb128 0x1c
 2658 08fc 29040000 		.4byte	.LASF66
 2659 0900 29040000 		.4byte	.LASF66
 2660 0904 05       		.byte	0x5
 2661 0905 32       		.byte	0x32
 2662 0906 1C       		.uleb128 0x1c
 2663 0907 38040000 		.4byte	.LASF67
 2664 090b 38040000 		.4byte	.LASF67
 2665 090f 06       		.byte	0x6
 2666 0910 33       		.byte	0x33
 2667 0911 1C       		.uleb128 0x1c
 2668 0912 48040000 		.4byte	.LASF68
 2669 0916 48040000 		.4byte	.LASF68
 2670 091a 06       		.byte	0x6
 2671 091b 32       		.byte	0x32
 2672 091c 00       		.byte	0
 2673              		.section	.debug_abbrev,"",%progbits
 2674              	.Ldebug_abbrev0:
 2675 0000 01       		.uleb128 0x1
 2676 0001 11       		.uleb128 0x11
 2677 0002 01       		.byte	0x1
 2678 0003 25       		.uleb128 0x25
 2679 0004 0E       		.uleb128 0xe
 2680 0005 13       		.uleb128 0x13
 2681 0006 0B       		.uleb128 0xb
 2682 0007 03       		.uleb128 0x3
 2683 0008 0E       		.uleb128 0xe
 2684 0009 1B       		.uleb128 0x1b
 2685 000a 0E       		.uleb128 0xe
 2686 000b 55       		.uleb128 0x55
 2687 000c 17       		.uleb128 0x17
 2688 000d 11       		.uleb128 0x11
 2689 000e 01       		.uleb128 0x1
 2690 000f 10       		.uleb128 0x10
 2691 0010 17       		.uleb128 0x17
 2692 0011 00       		.byte	0
 2693 0012 00       		.byte	0
 2694 0013 02       		.uleb128 0x2
 2695 0014 24       		.uleb128 0x24
 2696 0015 00       		.byte	0
 2697 0016 0B       		.uleb128 0xb
 2698 0017 0B       		.uleb128 0xb
ARM GAS  C:\Users\tsien\AppData\Local\Temp\ccVzEi8h.s 			page 73


 2699 0018 3E       		.uleb128 0x3e
 2700 0019 0B       		.uleb128 0xb
 2701 001a 03       		.uleb128 0x3
 2702 001b 0E       		.uleb128 0xe
 2703 001c 00       		.byte	0
 2704 001d 00       		.byte	0
 2705 001e 03       		.uleb128 0x3
 2706 001f 24       		.uleb128 0x24
 2707 0020 00       		.byte	0
 2708 0021 0B       		.uleb128 0xb
 2709 0022 0B       		.uleb128 0xb
 2710 0023 3E       		.uleb128 0x3e
 2711 0024 0B       		.uleb128 0xb
 2712 0025 03       		.uleb128 0x3
 2713 0026 08       		.uleb128 0x8
 2714 0027 00       		.byte	0
 2715 0028 00       		.byte	0
 2716 0029 04       		.uleb128 0x4
 2717 002a 16       		.uleb128 0x16
 2718 002b 00       		.byte	0
 2719 002c 03       		.uleb128 0x3
 2720 002d 0E       		.uleb128 0xe
 2721 002e 3A       		.uleb128 0x3a
 2722 002f 0B       		.uleb128 0xb
 2723 0030 3B       		.uleb128 0x3b
 2724 0031 05       		.uleb128 0x5
 2725 0032 49       		.uleb128 0x49
 2726 0033 13       		.uleb128 0x13
 2727 0034 00       		.byte	0
 2728 0035 00       		.byte	0
 2729 0036 05       		.uleb128 0x5
 2730 0037 35       		.uleb128 0x35
 2731 0038 00       		.byte	0
 2732 0039 49       		.uleb128 0x49
 2733 003a 13       		.uleb128 0x13
 2734 003b 00       		.byte	0
 2735 003c 00       		.byte	0
 2736 003d 06       		.uleb128 0x6
 2737 003e 2E       		.uleb128 0x2e
 2738 003f 01       		.byte	0x1
 2739 0040 03       		.uleb128 0x3
 2740 0041 0E       		.uleb128 0xe
 2741 0042 3A       		.uleb128 0x3a
 2742 0043 0B       		.uleb128 0xb
 2743 0044 3B       		.uleb128 0x3b
 2744 0045 05       		.uleb128 0x5
 2745 0046 27       		.uleb128 0x27
 2746 0047 19       		.uleb128 0x19
 2747 0048 49       		.uleb128 0x49
 2748 0049 13       		.uleb128 0x13
 2749 004a 11       		.uleb128 0x11
 2750 004b 01       		.uleb128 0x1
 2751 004c 12       		.uleb128 0x12
 2752 004d 06       		.uleb128 0x6
 2753 004e 40       		.uleb128 0x40
 2754 004f 18       		.uleb128 0x18
 2755 0050 9742     		.uleb128 0x2117
ARM GAS  C:\Users\tsien\AppData\Local\Temp\ccVzEi8h.s 			page 74


 2756 0052 19       		.uleb128 0x19
 2757 0053 01       		.uleb128 0x1
 2758 0054 13       		.uleb128 0x13
 2759 0055 00       		.byte	0
 2760 0056 00       		.byte	0
 2761 0057 07       		.uleb128 0x7
 2762 0058 05       		.uleb128 0x5
 2763 0059 00       		.byte	0
 2764 005a 03       		.uleb128 0x3
 2765 005b 0E       		.uleb128 0xe
 2766 005c 3A       		.uleb128 0x3a
 2767 005d 0B       		.uleb128 0xb
 2768 005e 3B       		.uleb128 0x3b
 2769 005f 05       		.uleb128 0x5
 2770 0060 49       		.uleb128 0x49
 2771 0061 13       		.uleb128 0x13
 2772 0062 02       		.uleb128 0x2
 2773 0063 17       		.uleb128 0x17
 2774 0064 00       		.byte	0
 2775 0065 00       		.byte	0
 2776 0066 08       		.uleb128 0x8
 2777 0067 34       		.uleb128 0x34
 2778 0068 00       		.byte	0
 2779 0069 03       		.uleb128 0x3
 2780 006a 0E       		.uleb128 0xe
 2781 006b 3A       		.uleb128 0x3a
 2782 006c 0B       		.uleb128 0xb
 2783 006d 3B       		.uleb128 0x3b
 2784 006e 05       		.uleb128 0x5
 2785 006f 49       		.uleb128 0x49
 2786 0070 13       		.uleb128 0x13
 2787 0071 1C       		.uleb128 0x1c
 2788 0072 0B       		.uleb128 0xb
 2789 0073 00       		.byte	0
 2790 0074 00       		.byte	0
 2791 0075 09       		.uleb128 0x9
 2792 0076 34       		.uleb128 0x34
 2793 0077 00       		.byte	0
 2794 0078 03       		.uleb128 0x3
 2795 0079 0E       		.uleb128 0xe
 2796 007a 3A       		.uleb128 0x3a
 2797 007b 0B       		.uleb128 0xb
 2798 007c 3B       		.uleb128 0x3b
 2799 007d 05       		.uleb128 0x5
 2800 007e 49       		.uleb128 0x49
 2801 007f 13       		.uleb128 0x13
 2802 0080 02       		.uleb128 0x2
 2803 0081 17       		.uleb128 0x17
 2804 0082 00       		.byte	0
 2805 0083 00       		.byte	0
 2806 0084 0A       		.uleb128 0xa
 2807 0085 898201   		.uleb128 0x4109
 2808 0088 01       		.byte	0x1
 2809 0089 11       		.uleb128 0x11
 2810 008a 01       		.uleb128 0x1
 2811 008b 31       		.uleb128 0x31
 2812 008c 13       		.uleb128 0x13
ARM GAS  C:\Users\tsien\AppData\Local\Temp\ccVzEi8h.s 			page 75


 2813 008d 00       		.byte	0
 2814 008e 00       		.byte	0
 2815 008f 0B       		.uleb128 0xb
 2816 0090 8A8201   		.uleb128 0x410a
 2817 0093 00       		.byte	0
 2818 0094 02       		.uleb128 0x2
 2819 0095 18       		.uleb128 0x18
 2820 0096 9142     		.uleb128 0x2111
 2821 0098 18       		.uleb128 0x18
 2822 0099 00       		.byte	0
 2823 009a 00       		.byte	0
 2824 009b 0C       		.uleb128 0xc
 2825 009c 0F       		.uleb128 0xf
 2826 009d 00       		.byte	0
 2827 009e 0B       		.uleb128 0xb
 2828 009f 0B       		.uleb128 0xb
 2829 00a0 49       		.uleb128 0x49
 2830 00a1 13       		.uleb128 0x13
 2831 00a2 00       		.byte	0
 2832 00a3 00       		.byte	0
 2833 00a4 0D       		.uleb128 0xd
 2834 00a5 26       		.uleb128 0x26
 2835 00a6 00       		.byte	0
 2836 00a7 49       		.uleb128 0x49
 2837 00a8 13       		.uleb128 0x13
 2838 00a9 00       		.byte	0
 2839 00aa 00       		.byte	0
 2840 00ab 0E       		.uleb128 0xe
 2841 00ac 898201   		.uleb128 0x4109
 2842 00af 00       		.byte	0
 2843 00b0 11       		.uleb128 0x11
 2844 00b1 01       		.uleb128 0x1
 2845 00b2 31       		.uleb128 0x31
 2846 00b3 13       		.uleb128 0x13
 2847 00b4 00       		.byte	0
 2848 00b5 00       		.byte	0
 2849 00b6 0F       		.uleb128 0xf
 2850 00b7 2E       		.uleb128 0x2e
 2851 00b8 01       		.byte	0x1
 2852 00b9 3F       		.uleb128 0x3f
 2853 00ba 19       		.uleb128 0x19
 2854 00bb 03       		.uleb128 0x3
 2855 00bc 0E       		.uleb128 0xe
 2856 00bd 3A       		.uleb128 0x3a
 2857 00be 0B       		.uleb128 0xb
 2858 00bf 3B       		.uleb128 0x3b
 2859 00c0 05       		.uleb128 0x5
 2860 00c1 27       		.uleb128 0x27
 2861 00c2 19       		.uleb128 0x19
 2862 00c3 49       		.uleb128 0x49
 2863 00c4 13       		.uleb128 0x13
 2864 00c5 11       		.uleb128 0x11
 2865 00c6 01       		.uleb128 0x1
 2866 00c7 12       		.uleb128 0x12
 2867 00c8 06       		.uleb128 0x6
 2868 00c9 40       		.uleb128 0x40
 2869 00ca 18       		.uleb128 0x18
ARM GAS  C:\Users\tsien\AppData\Local\Temp\ccVzEi8h.s 			page 76


 2870 00cb 9742     		.uleb128 0x2117
 2871 00cd 19       		.uleb128 0x19
 2872 00ce 01       		.uleb128 0x1
 2873 00cf 13       		.uleb128 0x13
 2874 00d0 00       		.byte	0
 2875 00d1 00       		.byte	0
 2876 00d2 10       		.uleb128 0x10
 2877 00d3 0B       		.uleb128 0xb
 2878 00d4 01       		.byte	0x1
 2879 00d5 11       		.uleb128 0x11
 2880 00d6 01       		.uleb128 0x1
 2881 00d7 12       		.uleb128 0x12
 2882 00d8 06       		.uleb128 0x6
 2883 00d9 01       		.uleb128 0x1
 2884 00da 13       		.uleb128 0x13
 2885 00db 00       		.byte	0
 2886 00dc 00       		.byte	0
 2887 00dd 11       		.uleb128 0x11
 2888 00de 34       		.uleb128 0x34
 2889 00df 00       		.byte	0
 2890 00e0 03       		.uleb128 0x3
 2891 00e1 0E       		.uleb128 0xe
 2892 00e2 3A       		.uleb128 0x3a
 2893 00e3 0B       		.uleb128 0xb
 2894 00e4 3B       		.uleb128 0x3b
 2895 00e5 05       		.uleb128 0x5
 2896 00e6 49       		.uleb128 0x49
 2897 00e7 13       		.uleb128 0x13
 2898 00e8 02       		.uleb128 0x2
 2899 00e9 18       		.uleb128 0x18
 2900 00ea 00       		.byte	0
 2901 00eb 00       		.byte	0
 2902 00ec 12       		.uleb128 0x12
 2903 00ed 898201   		.uleb128 0x4109
 2904 00f0 01       		.byte	0x1
 2905 00f1 11       		.uleb128 0x11
 2906 00f2 01       		.uleb128 0x1
 2907 00f3 31       		.uleb128 0x31
 2908 00f4 13       		.uleb128 0x13
 2909 00f5 01       		.uleb128 0x1
 2910 00f6 13       		.uleb128 0x13
 2911 00f7 00       		.byte	0
 2912 00f8 00       		.byte	0
 2913 00f9 13       		.uleb128 0x13
 2914 00fa 0B       		.uleb128 0xb
 2915 00fb 01       		.byte	0x1
 2916 00fc 11       		.uleb128 0x11
 2917 00fd 01       		.uleb128 0x1
 2918 00fe 12       		.uleb128 0x12
 2919 00ff 06       		.uleb128 0x6
 2920 0100 00       		.byte	0
 2921 0101 00       		.byte	0
 2922 0102 14       		.uleb128 0x14
 2923 0103 2E       		.uleb128 0x2e
 2924 0104 00       		.byte	0
 2925 0105 3F       		.uleb128 0x3f
 2926 0106 19       		.uleb128 0x19
ARM GAS  C:\Users\tsien\AppData\Local\Temp\ccVzEi8h.s 			page 77


 2927 0107 03       		.uleb128 0x3
 2928 0108 0E       		.uleb128 0xe
 2929 0109 3A       		.uleb128 0x3a
 2930 010a 0B       		.uleb128 0xb
 2931 010b 3B       		.uleb128 0x3b
 2932 010c 05       		.uleb128 0x5
 2933 010d 27       		.uleb128 0x27
 2934 010e 19       		.uleb128 0x19
 2935 010f 49       		.uleb128 0x49
 2936 0110 13       		.uleb128 0x13
 2937 0111 11       		.uleb128 0x11
 2938 0112 01       		.uleb128 0x1
 2939 0113 12       		.uleb128 0x12
 2940 0114 06       		.uleb128 0x6
 2941 0115 40       		.uleb128 0x40
 2942 0116 18       		.uleb128 0x18
 2943 0117 9742     		.uleb128 0x2117
 2944 0119 19       		.uleb128 0x19
 2945 011a 00       		.byte	0
 2946 011b 00       		.byte	0
 2947 011c 15       		.uleb128 0x15
 2948 011d 2E       		.uleb128 0x2e
 2949 011e 01       		.byte	0x1
 2950 011f 3F       		.uleb128 0x3f
 2951 0120 19       		.uleb128 0x19
 2952 0121 03       		.uleb128 0x3
 2953 0122 0E       		.uleb128 0xe
 2954 0123 3A       		.uleb128 0x3a
 2955 0124 0B       		.uleb128 0xb
 2956 0125 3B       		.uleb128 0x3b
 2957 0126 05       		.uleb128 0x5
 2958 0127 27       		.uleb128 0x27
 2959 0128 19       		.uleb128 0x19
 2960 0129 11       		.uleb128 0x11
 2961 012a 01       		.uleb128 0x1
 2962 012b 12       		.uleb128 0x12
 2963 012c 06       		.uleb128 0x6
 2964 012d 40       		.uleb128 0x40
 2965 012e 18       		.uleb128 0x18
 2966 012f 9742     		.uleb128 0x2117
 2967 0131 19       		.uleb128 0x19
 2968 0132 01       		.uleb128 0x1
 2969 0133 13       		.uleb128 0x13
 2970 0134 00       		.byte	0
 2971 0135 00       		.byte	0
 2972 0136 16       		.uleb128 0x16
 2973 0137 2E       		.uleb128 0x2e
 2974 0138 01       		.byte	0x1
 2975 0139 3F       		.uleb128 0x3f
 2976 013a 19       		.uleb128 0x19
 2977 013b 03       		.uleb128 0x3
 2978 013c 0E       		.uleb128 0xe
 2979 013d 3A       		.uleb128 0x3a
 2980 013e 0B       		.uleb128 0xb
 2981 013f 3B       		.uleb128 0x3b
 2982 0140 0B       		.uleb128 0xb
 2983 0141 27       		.uleb128 0x27
ARM GAS  C:\Users\tsien\AppData\Local\Temp\ccVzEi8h.s 			page 78


 2984 0142 19       		.uleb128 0x19
 2985 0143 49       		.uleb128 0x49
 2986 0144 13       		.uleb128 0x13
 2987 0145 11       		.uleb128 0x11
 2988 0146 01       		.uleb128 0x1
 2989 0147 12       		.uleb128 0x12
 2990 0148 06       		.uleb128 0x6
 2991 0149 40       		.uleb128 0x40
 2992 014a 18       		.uleb128 0x18
 2993 014b 9742     		.uleb128 0x2117
 2994 014d 19       		.uleb128 0x19
 2995 014e 01       		.uleb128 0x1
 2996 014f 13       		.uleb128 0x13
 2997 0150 00       		.byte	0
 2998 0151 00       		.byte	0
 2999 0152 17       		.uleb128 0x17
 3000 0153 05       		.uleb128 0x5
 3001 0154 00       		.byte	0
 3002 0155 03       		.uleb128 0x3
 3003 0156 0E       		.uleb128 0xe
 3004 0157 3A       		.uleb128 0x3a
 3005 0158 0B       		.uleb128 0xb
 3006 0159 3B       		.uleb128 0x3b
 3007 015a 0B       		.uleb128 0xb
 3008 015b 49       		.uleb128 0x49
 3009 015c 13       		.uleb128 0x13
 3010 015d 02       		.uleb128 0x2
 3011 015e 17       		.uleb128 0x17
 3012 015f 00       		.byte	0
 3013 0160 00       		.byte	0
 3014 0161 18       		.uleb128 0x18
 3015 0162 05       		.uleb128 0x5
 3016 0163 00       		.byte	0
 3017 0164 03       		.uleb128 0x3
 3018 0165 08       		.uleb128 0x8
 3019 0166 3A       		.uleb128 0x3a
 3020 0167 0B       		.uleb128 0xb
 3021 0168 3B       		.uleb128 0x3b
 3022 0169 0B       		.uleb128 0xb
 3023 016a 49       		.uleb128 0x49
 3024 016b 13       		.uleb128 0x13
 3025 016c 02       		.uleb128 0x2
 3026 016d 17       		.uleb128 0x17
 3027 016e 00       		.byte	0
 3028 016f 00       		.byte	0
 3029 0170 19       		.uleb128 0x19
 3030 0171 34       		.uleb128 0x34
 3031 0172 00       		.byte	0
 3032 0173 03       		.uleb128 0x3
 3033 0174 0E       		.uleb128 0xe
 3034 0175 3A       		.uleb128 0x3a
 3035 0176 0B       		.uleb128 0xb
 3036 0177 3B       		.uleb128 0x3b
 3037 0178 0B       		.uleb128 0xb
 3038 0179 49       		.uleb128 0x49
 3039 017a 13       		.uleb128 0x13
 3040 017b 02       		.uleb128 0x2
ARM GAS  C:\Users\tsien\AppData\Local\Temp\ccVzEi8h.s 			page 79


 3041 017c 17       		.uleb128 0x17
 3042 017d 00       		.byte	0
 3043 017e 00       		.byte	0
 3044 017f 1A       		.uleb128 0x1a
 3045 0180 34       		.uleb128 0x34
 3046 0181 00       		.byte	0
 3047 0182 03       		.uleb128 0x3
 3048 0183 0E       		.uleb128 0xe
 3049 0184 3A       		.uleb128 0x3a
 3050 0185 0B       		.uleb128 0xb
 3051 0186 3B       		.uleb128 0x3b
 3052 0187 0B       		.uleb128 0xb
 3053 0188 49       		.uleb128 0x49
 3054 0189 13       		.uleb128 0x13
 3055 018a 3F       		.uleb128 0x3f
 3056 018b 19       		.uleb128 0x19
 3057 018c 3C       		.uleb128 0x3c
 3058 018d 19       		.uleb128 0x19
 3059 018e 00       		.byte	0
 3060 018f 00       		.byte	0
 3061 0190 1B       		.uleb128 0x1b
 3062 0191 34       		.uleb128 0x34
 3063 0192 00       		.byte	0
 3064 0193 03       		.uleb128 0x3
 3065 0194 0E       		.uleb128 0xe
 3066 0195 3A       		.uleb128 0x3a
 3067 0196 0B       		.uleb128 0xb
 3068 0197 3B       		.uleb128 0x3b
 3069 0198 0B       		.uleb128 0xb
 3070 0199 49       		.uleb128 0x49
 3071 019a 13       		.uleb128 0x13
 3072 019b 3F       		.uleb128 0x3f
 3073 019c 19       		.uleb128 0x19
 3074 019d 02       		.uleb128 0x2
 3075 019e 18       		.uleb128 0x18
 3076 019f 00       		.byte	0
 3077 01a0 00       		.byte	0
 3078 01a1 1C       		.uleb128 0x1c
 3079 01a2 2E       		.uleb128 0x2e
 3080 01a3 00       		.byte	0
 3081 01a4 3F       		.uleb128 0x3f
 3082 01a5 19       		.uleb128 0x19
 3083 01a6 3C       		.uleb128 0x3c
 3084 01a7 19       		.uleb128 0x19
 3085 01a8 6E       		.uleb128 0x6e
 3086 01a9 0E       		.uleb128 0xe
 3087 01aa 03       		.uleb128 0x3
 3088 01ab 0E       		.uleb128 0xe
 3089 01ac 3A       		.uleb128 0x3a
 3090 01ad 0B       		.uleb128 0xb
 3091 01ae 3B       		.uleb128 0x3b
 3092 01af 0B       		.uleb128 0xb
 3093 01b0 00       		.byte	0
 3094 01b1 00       		.byte	0
 3095 01b2 00       		.byte	0
 3096              		.section	.debug_loc,"",%progbits
 3097              	.Ldebug_loc0:
ARM GAS  C:\Users\tsien\AppData\Local\Temp\ccVzEi8h.s 			page 80


 3098              	.LLST0:
 3099 0000 00000000 		.4byte	.LVL0
 3100 0004 0C000000 		.4byte	.LVL2
 3101 0008 0100     		.2byte	0x1
 3102 000a 50       		.byte	0x50
 3103 000b 0C000000 		.4byte	.LVL2
 3104 000f 1E000000 		.4byte	.LVL4
 3105 0013 0100     		.2byte	0x1
 3106 0015 54       		.byte	0x54
 3107 0016 1E000000 		.4byte	.LVL4
 3108 001a 20000000 		.4byte	.LVL5
 3109 001e 0100     		.2byte	0x1
 3110 0020 50       		.byte	0x50
 3111 0021 20000000 		.4byte	.LVL5
 3112 0025 26000000 		.4byte	.LVL7
 3113 0029 0100     		.2byte	0x1
 3114 002b 54       		.byte	0x54
 3115 002c 26000000 		.4byte	.LVL7
 3116 0030 28000000 		.4byte	.LFE15
 3117 0034 0400     		.2byte	0x4
 3118 0036 F3       		.byte	0xf3
 3119 0037 01       		.uleb128 0x1
 3120 0038 50       		.byte	0x50
 3121 0039 9F       		.byte	0x9f
 3122 003a 00000000 		.4byte	0
 3123 003e 00000000 		.4byte	0
 3124              	.LLST1:
 3125 0042 04000000 		.4byte	.LVL1
 3126 0046 26000000 		.4byte	.LVL6
 3127 004a 0200     		.2byte	0x2
 3128 004c 30       		.byte	0x30
 3129 004d 9F       		.byte	0x9f
 3130 004e 26000000 		.4byte	.LVL6
 3131 0052 28000000 		.4byte	.LFE15
 3132 0056 0100     		.2byte	0x1
 3133 0058 50       		.byte	0x50
 3134 0059 00000000 		.4byte	0
 3135 005d 00000000 		.4byte	0
 3136              	.LLST2:
 3137 0061 00000000 		.4byte	.LVL8
 3138 0065 A1000000 		.4byte	.LVL21-1
 3139 0069 0100     		.2byte	0x1
 3140 006b 50       		.byte	0x50
 3141 006c A1000000 		.4byte	.LVL21-1
 3142 0070 A4000000 		.4byte	.LVL22
 3143 0074 0400     		.2byte	0x4
 3144 0076 F3       		.byte	0xf3
 3145 0077 01       		.uleb128 0x1
 3146 0078 50       		.byte	0x50
 3147 0079 9F       		.byte	0x9f
 3148 007a A4000000 		.4byte	.LVL22
 3149 007e AA000000 		.4byte	.LVL24
 3150 0082 0100     		.2byte	0x1
 3151 0084 50       		.byte	0x50
 3152 0085 AA000000 		.4byte	.LVL24
 3153 0089 C4000000 		.4byte	.LFE14
 3154 008d 0400     		.2byte	0x4
ARM GAS  C:\Users\tsien\AppData\Local\Temp\ccVzEi8h.s 			page 81


 3155 008f F3       		.byte	0xf3
 3156 0090 01       		.uleb128 0x1
 3157 0091 50       		.byte	0x50
 3158 0092 9F       		.byte	0x9f
 3159 0093 00000000 		.4byte	0
 3160 0097 00000000 		.4byte	0
 3161              	.LLST3:
 3162 009b 0C000000 		.4byte	.LVL10
 3163 009f 1E000000 		.4byte	.LVL11
 3164 00a3 0200     		.2byte	0x2
 3165 00a5 40       		.byte	0x40
 3166 00a6 9F       		.byte	0x9f
 3167 00a7 22000000 		.4byte	.LVL12
 3168 00ab 42000000 		.4byte	.LVL14
 3169 00af 0200     		.2byte	0x2
 3170 00b1 31       		.byte	0x31
 3171 00b2 9F       		.byte	0x9f
 3172 00b3 4A000000 		.4byte	.LVL15
 3173 00b7 7A000000 		.4byte	.LVL16
 3174 00bb 0200     		.2byte	0x2
 3175 00bd 30       		.byte	0x30
 3176 00be 9F       		.byte	0x9f
 3177 00bf 82000000 		.4byte	.LVL17
 3178 00c3 88000000 		.4byte	.LVL18
 3179 00c7 0200     		.2byte	0x2
 3180 00c9 31       		.byte	0x31
 3181 00ca 9F       		.byte	0x9f
 3182 00cb 96000000 		.4byte	.LVL19
 3183 00cf 9A000000 		.4byte	.LVL20
 3184 00d3 0200     		.2byte	0x2
 3185 00d5 30       		.byte	0x30
 3186 00d6 9F       		.byte	0x9f
 3187 00d7 9A000000 		.4byte	.LVL20
 3188 00db AC000000 		.4byte	.LVL25
 3189 00df 0100     		.2byte	0x1
 3190 00e1 54       		.byte	0x54
 3191 00e2 AC000000 		.4byte	.LVL25
 3192 00e6 C4000000 		.4byte	.LFE14
 3193 00ea 0100     		.2byte	0x1
 3194 00ec 50       		.byte	0x50
 3195 00ed 00000000 		.4byte	0
 3196 00f1 00000000 		.4byte	0
 3197              	.LLST4:
 3198 00f5 02000000 		.4byte	.LVL9
 3199 00f9 38000000 		.4byte	.LVL13
 3200 00fd 0200     		.2byte	0x2
 3201 00ff 30       		.byte	0x30
 3202 0100 9F       		.byte	0x9f
 3203 0101 38000000 		.4byte	.LVL13
 3204 0105 42000000 		.4byte	.LVL14
 3205 0109 0100     		.2byte	0x1
 3206 010b 53       		.byte	0x53
 3207 010c 42000000 		.4byte	.LVL14
 3208 0110 9A000000 		.4byte	.LVL20
 3209 0114 0200     		.2byte	0x2
 3210 0116 30       		.byte	0x30
 3211 0117 9F       		.byte	0x9f
ARM GAS  C:\Users\tsien\AppData\Local\Temp\ccVzEi8h.s 			page 82


 3212 0118 9A000000 		.4byte	.LVL20
 3213 011c A1000000 		.4byte	.LVL21-1
 3214 0120 0100     		.2byte	0x1
 3215 0122 53       		.byte	0x53
 3216 0123 A4000000 		.4byte	.LVL22
 3217 0127 A8000000 		.4byte	.LVL23
 3218 012b 0100     		.2byte	0x1
 3219 012d 53       		.byte	0x53
 3220 012e 00000000 		.4byte	0
 3221 0132 00000000 		.4byte	0
 3222              	.LLST5:
 3223 0136 00000000 		.4byte	.LVL26
 3224 013a 14000000 		.4byte	.LVL28
 3225 013e 0100     		.2byte	0x1
 3226 0140 50       		.byte	0x50
 3227 0141 14000000 		.4byte	.LVL28
 3228 0145 3C000000 		.4byte	.LVL31
 3229 0149 0100     		.2byte	0x1
 3230 014b 54       		.byte	0x54
 3231 014c 3C000000 		.4byte	.LVL31
 3232 0150 40000000 		.4byte	.LVL32
 3233 0154 0400     		.2byte	0x4
 3234 0156 F3       		.byte	0xf3
 3235 0157 01       		.uleb128 0x1
 3236 0158 50       		.byte	0x50
 3237 0159 9F       		.byte	0x9f
 3238 015a 40000000 		.4byte	.LVL32
 3239 015e 60000000 		.4byte	.LVL34
 3240 0162 0100     		.2byte	0x1
 3241 0164 54       		.byte	0x54
 3242 0165 8A000000 		.4byte	.LVL43
 3243 0169 8C000000 		.4byte	.LVL44
 3244 016d 0100     		.2byte	0x1
 3245 016f 54       		.byte	0x54
 3246 0170 94000000 		.4byte	.LVL46
 3247 0174 96000000 		.4byte	.LVL47
 3248 0178 0100     		.2byte	0x1
 3249 017a 50       		.byte	0x50
 3250 017b 00000000 		.4byte	0
 3251 017f 00000000 		.4byte	0
 3252              	.LLST6:
 3253 0183 00000000 		.4byte	.LVL26
 3254 0187 17000000 		.4byte	.LVL29-1
 3255 018b 0100     		.2byte	0x1
 3256 018d 51       		.byte	0x51
 3257 018e 17000000 		.4byte	.LVL29-1
 3258 0192 94000000 		.4byte	.LVL46
 3259 0196 0100     		.2byte	0x1
 3260 0198 55       		.byte	0x55
 3261 0199 94000000 		.4byte	.LVL46
 3262 019d 96000000 		.4byte	.LVL47
 3263 01a1 0100     		.2byte	0x1
 3264 01a3 51       		.byte	0x51
 3265 01a4 96000000 		.4byte	.LVL47
 3266 01a8 9A000000 		.4byte	.LVL49
 3267 01ac 0100     		.2byte	0x1
 3268 01ae 55       		.byte	0x55
ARM GAS  C:\Users\tsien\AppData\Local\Temp\ccVzEi8h.s 			page 83


 3269 01af 9A000000 		.4byte	.LVL49
 3270 01b3 C4000000 		.4byte	.LFE2
 3271 01b7 0400     		.2byte	0x4
 3272 01b9 F3       		.byte	0xf3
 3273 01ba 01       		.uleb128 0x1
 3274 01bb 51       		.byte	0x51
 3275 01bc 9F       		.byte	0x9f
 3276 01bd 00000000 		.4byte	0
 3277 01c1 00000000 		.4byte	0
 3278              	.LLST7:
 3279 01c5 00000000 		.4byte	.LVL26
 3280 01c9 17000000 		.4byte	.LVL29-1
 3281 01cd 0100     		.2byte	0x1
 3282 01cf 52       		.byte	0x52
 3283 01d0 17000000 		.4byte	.LVL29-1
 3284 01d4 26000000 		.4byte	.LVL30
 3285 01d8 0100     		.2byte	0x1
 3286 01da 56       		.byte	0x56
 3287 01db 26000000 		.4byte	.LVL30
 3288 01df 8A000000 		.4byte	.LVL43
 3289 01e3 0400     		.2byte	0x4
 3290 01e5 F3       		.byte	0xf3
 3291 01e6 01       		.uleb128 0x1
 3292 01e7 52       		.byte	0x52
 3293 01e8 9F       		.byte	0x9f
 3294 01e9 8A000000 		.4byte	.LVL43
 3295 01ed 8C000000 		.4byte	.LVL44
 3296 01f1 0100     		.2byte	0x1
 3297 01f3 56       		.byte	0x56
 3298 01f4 8C000000 		.4byte	.LVL44
 3299 01f8 94000000 		.4byte	.LVL46
 3300 01fc 0400     		.2byte	0x4
 3301 01fe F3       		.byte	0xf3
 3302 01ff 01       		.uleb128 0x1
 3303 0200 52       		.byte	0x52
 3304 0201 9F       		.byte	0x9f
 3305 0202 94000000 		.4byte	.LVL46
 3306 0206 96000000 		.4byte	.LVL47
 3307 020a 0100     		.2byte	0x1
 3308 020c 52       		.byte	0x52
 3309 020d 96000000 		.4byte	.LVL47
 3310 0211 C4000000 		.4byte	.LFE2
 3311 0215 0400     		.2byte	0x4
 3312 0217 F3       		.byte	0xf3
 3313 0218 01       		.uleb128 0x1
 3314 0219 52       		.byte	0x52
 3315 021a 9F       		.byte	0x9f
 3316 021b 00000000 		.4byte	0
 3317 021f 00000000 		.4byte	0
 3318              	.LLST8:
 3319 0223 0A000000 		.4byte	.LVL27
 3320 0227 88000000 		.4byte	.LVL42
 3321 022b 0200     		.2byte	0x2
 3322 022d 34       		.byte	0x34
 3323 022e 9F       		.byte	0x9f
 3324 022f 88000000 		.4byte	.LVL42
 3325 0233 8A000000 		.4byte	.LVL43
ARM GAS  C:\Users\tsien\AppData\Local\Temp\ccVzEi8h.s 			page 84


 3326 0237 0100     		.2byte	0x1
 3327 0239 50       		.byte	0x50
 3328 023a 8A000000 		.4byte	.LVL43
 3329 023e 8C000000 		.4byte	.LVL44
 3330 0242 0200     		.2byte	0x2
 3331 0244 34       		.byte	0x34
 3332 0245 9F       		.byte	0x9f
 3333 0246 8C000000 		.4byte	.LVL44
 3334 024a 94000000 		.4byte	.LVL46
 3335 024e 0100     		.2byte	0x1
 3336 0250 54       		.byte	0x54
 3337 0251 94000000 		.4byte	.LVL46
 3338 0255 96000000 		.4byte	.LVL47
 3339 0259 0200     		.2byte	0x2
 3340 025b 34       		.byte	0x34
 3341 025c 9F       		.byte	0x9f
 3342 025d 96000000 		.4byte	.LVL47
 3343 0261 9A000000 		.4byte	.LVL48
 3344 0265 0100     		.2byte	0x1
 3345 0267 54       		.byte	0x54
 3346 0268 9A000000 		.4byte	.LVL48
 3347 026c C4000000 		.4byte	.LFE2
 3348 0270 0100     		.2byte	0x1
 3349 0272 50       		.byte	0x50
 3350 0273 00000000 		.4byte	0
 3351 0277 00000000 		.4byte	0
 3352              	.LLST9:
 3353 027b 6C000000 		.4byte	.LVL35
 3354 027f 76000000 		.4byte	.LVL36
 3355 0283 0100     		.2byte	0x1
 3356 0285 50       		.byte	0x50
 3357 0286 78000000 		.4byte	.LVL37
 3358 028a 7A000000 		.4byte	.LVL38
 3359 028e 0100     		.2byte	0x1
 3360 0290 50       		.byte	0x50
 3361 0291 7A000000 		.4byte	.LVL38
 3362 0295 80000000 		.4byte	.LVL40
 3363 0299 0100     		.2byte	0x1
 3364 029b 54       		.byte	0x54
 3365 029c 80000000 		.4byte	.LVL40
 3366 02a0 85000000 		.4byte	.LVL41-1
 3367 02a4 0100     		.2byte	0x1
 3368 02a6 50       		.byte	0x50
 3369 02a7 00000000 		.4byte	0
 3370 02ab 00000000 		.4byte	0
 3371              	.LLST10:
 3372 02af 00000000 		.4byte	.LVL50
 3373 02b3 12000000 		.4byte	.LVL52
 3374 02b7 0100     		.2byte	0x1
 3375 02b9 50       		.byte	0x50
 3376 02ba 12000000 		.4byte	.LVL52
 3377 02be 42000000 		.4byte	.LVL58
 3378 02c2 0400     		.2byte	0x4
 3379 02c4 F3       		.byte	0xf3
 3380 02c5 01       		.uleb128 0x1
 3381 02c6 50       		.byte	0x50
 3382 02c7 9F       		.byte	0x9f
ARM GAS  C:\Users\tsien\AppData\Local\Temp\ccVzEi8h.s 			page 85


 3383 02c8 42000000 		.4byte	.LVL58
 3384 02cc 44000000 		.4byte	.LVL59
 3385 02d0 0100     		.2byte	0x1
 3386 02d2 50       		.byte	0x50
 3387 02d3 44000000 		.4byte	.LVL59
 3388 02d7 58000000 		.4byte	.LFE4
 3389 02db 0400     		.2byte	0x4
 3390 02dd F3       		.byte	0xf3
 3391 02de 01       		.uleb128 0x1
 3392 02df 50       		.byte	0x50
 3393 02e0 9F       		.byte	0x9f
 3394 02e1 00000000 		.4byte	0
 3395 02e5 00000000 		.4byte	0
 3396              	.LLST11:
 3397 02e9 04000000 		.4byte	.LVL51
 3398 02ed 40000000 		.4byte	.LVL57
 3399 02f1 0200     		.2byte	0x2
 3400 02f3 34       		.byte	0x34
 3401 02f4 9F       		.byte	0x9f
 3402 02f5 40000000 		.4byte	.LVL57
 3403 02f9 42000000 		.4byte	.LVL58
 3404 02fd 0100     		.2byte	0x1
 3405 02ff 50       		.byte	0x50
 3406 0300 42000000 		.4byte	.LVL58
 3407 0304 44000000 		.4byte	.LVL59
 3408 0308 0200     		.2byte	0x2
 3409 030a 34       		.byte	0x34
 3410 030b 9F       		.byte	0x9f
 3411 030c 44000000 		.4byte	.LVL59
 3412 0310 58000000 		.4byte	.LFE4
 3413 0314 0100     		.2byte	0x1
 3414 0316 50       		.byte	0x50
 3415 0317 00000000 		.4byte	0
 3416 031b 00000000 		.4byte	0
 3417              	.LLST12:
 3418 031f 32000000 		.4byte	.LVL53
 3419 0323 34000000 		.4byte	.LVL54
 3420 0327 0100     		.2byte	0x1
 3421 0329 50       		.byte	0x50
 3422 032a 34000000 		.4byte	.LVL54
 3423 032e 3A000000 		.4byte	.LVL56
 3424 0332 0100     		.2byte	0x1
 3425 0334 54       		.byte	0x54
 3426 0335 3A000000 		.4byte	.LVL56
 3427 0339 3F000000 		.4byte	.LVL57-1
 3428 033d 0100     		.2byte	0x1
 3429 033f 50       		.byte	0x50
 3430 0340 00000000 		.4byte	0
 3431 0344 00000000 		.4byte	0
 3432              	.LLST13:
 3433 0348 00000000 		.4byte	.LVL60
 3434 034c 18000000 		.4byte	.LVL63
 3435 0350 0100     		.2byte	0x1
 3436 0352 50       		.byte	0x50
 3437 0353 18000000 		.4byte	.LVL63
 3438 0357 34000000 		.4byte	.LVL69
 3439 035b 0400     		.2byte	0x4
ARM GAS  C:\Users\tsien\AppData\Local\Temp\ccVzEi8h.s 			page 86


 3440 035d F3       		.byte	0xf3
 3441 035e 01       		.uleb128 0x1
 3442 035f 50       		.byte	0x50
 3443 0360 9F       		.byte	0x9f
 3444 0361 34000000 		.4byte	.LVL69
 3445 0365 36000000 		.4byte	.LVL70
 3446 0369 0100     		.2byte	0x1
 3447 036b 50       		.byte	0x50
 3448 036c 36000000 		.4byte	.LVL70
 3449 0370 48000000 		.4byte	.LFE5
 3450 0374 0400     		.2byte	0x4
 3451 0376 F3       		.byte	0xf3
 3452 0377 01       		.uleb128 0x1
 3453 0378 50       		.byte	0x50
 3454 0379 9F       		.byte	0x9f
 3455 037a 00000000 		.4byte	0
 3456 037e 00000000 		.4byte	0
 3457              	.LLST14:
 3458 0382 00000000 		.4byte	.LVL60
 3459 0386 12000000 		.4byte	.LVL62
 3460 038a 0100     		.2byte	0x1
 3461 038c 51       		.byte	0x51
 3462 038d 12000000 		.4byte	.LVL62
 3463 0391 34000000 		.4byte	.LVL69
 3464 0395 0400     		.2byte	0x4
 3465 0397 F3       		.byte	0xf3
 3466 0398 01       		.uleb128 0x1
 3467 0399 51       		.byte	0x51
 3468 039a 9F       		.byte	0x9f
 3469 039b 34000000 		.4byte	.LVL69
 3470 039f 36000000 		.4byte	.LVL70
 3471 03a3 0100     		.2byte	0x1
 3472 03a5 51       		.byte	0x51
 3473 03a6 36000000 		.4byte	.LVL70
 3474 03aa 48000000 		.4byte	.LFE5
 3475 03ae 0400     		.2byte	0x4
 3476 03b0 F3       		.byte	0xf3
 3477 03b1 01       		.uleb128 0x1
 3478 03b2 51       		.byte	0x51
 3479 03b3 9F       		.byte	0x9f
 3480 03b4 00000000 		.4byte	0
 3481 03b8 00000000 		.4byte	0
 3482              	.LLST15:
 3483 03bc 04000000 		.4byte	.LVL61
 3484 03c0 32000000 		.4byte	.LVL68
 3485 03c4 0200     		.2byte	0x2
 3486 03c6 34       		.byte	0x34
 3487 03c7 9F       		.byte	0x9f
 3488 03c8 32000000 		.4byte	.LVL68
 3489 03cc 34000000 		.4byte	.LVL69
 3490 03d0 0100     		.2byte	0x1
 3491 03d2 50       		.byte	0x50
 3492 03d3 34000000 		.4byte	.LVL69
 3493 03d7 36000000 		.4byte	.LVL70
 3494 03db 0200     		.2byte	0x2
 3495 03dd 34       		.byte	0x34
 3496 03de 9F       		.byte	0x9f
ARM GAS  C:\Users\tsien\AppData\Local\Temp\ccVzEi8h.s 			page 87


 3497 03df 36000000 		.4byte	.LVL70
 3498 03e3 48000000 		.4byte	.LFE5
 3499 03e7 0100     		.2byte	0x1
 3500 03e9 50       		.byte	0x50
 3501 03ea 00000000 		.4byte	0
 3502 03ee 00000000 		.4byte	0
 3503              	.LLST16:
 3504 03f2 24000000 		.4byte	.LVL64
 3505 03f6 26000000 		.4byte	.LVL65
 3506 03fa 0100     		.2byte	0x1
 3507 03fc 50       		.byte	0x50
 3508 03fd 26000000 		.4byte	.LVL65
 3509 0401 2C000000 		.4byte	.LVL67
 3510 0405 0100     		.2byte	0x1
 3511 0407 54       		.byte	0x54
 3512 0408 2C000000 		.4byte	.LVL67
 3513 040c 31000000 		.4byte	.LVL68-1
 3514 0410 0100     		.2byte	0x1
 3515 0412 50       		.byte	0x50
 3516 0413 00000000 		.4byte	0
 3517 0417 00000000 		.4byte	0
 3518              	.LLST17:
 3519 041b 00000000 		.4byte	.LVL71
 3520 041f 18000000 		.4byte	.LVL74
 3521 0423 0100     		.2byte	0x1
 3522 0425 50       		.byte	0x50
 3523 0426 18000000 		.4byte	.LVL74
 3524 042a 5E000000 		.4byte	.LVL81
 3525 042e 0100     		.2byte	0x1
 3526 0430 54       		.byte	0x54
 3527 0431 5E000000 		.4byte	.LVL81
 3528 0435 60000000 		.4byte	.LVL82
 3529 0439 0100     		.2byte	0x1
 3530 043b 50       		.byte	0x50
 3531 043c 60000000 		.4byte	.LVL82
 3532 0440 62000000 		.4byte	.LVL83
 3533 0444 0100     		.2byte	0x1
 3534 0446 54       		.byte	0x54
 3535 0447 62000000 		.4byte	.LVL83
 3536 044b 7C000000 		.4byte	.LFE6
 3537 044f 0400     		.2byte	0x4
 3538 0451 F3       		.byte	0xf3
 3539 0452 01       		.uleb128 0x1
 3540 0453 50       		.byte	0x50
 3541 0454 9F       		.byte	0x9f
 3542 0455 00000000 		.4byte	0
 3543 0459 00000000 		.4byte	0
 3544              	.LLST18:
 3545 045d 00000000 		.4byte	.LVL71
 3546 0461 18000000 		.4byte	.LVL74
 3547 0465 0100     		.2byte	0x1
 3548 0467 51       		.byte	0x51
 3549 0468 18000000 		.4byte	.LVL74
 3550 046c 5E000000 		.4byte	.LVL81
 3551 0470 0100     		.2byte	0x1
 3552 0472 55       		.byte	0x55
 3553 0473 5E000000 		.4byte	.LVL81
ARM GAS  C:\Users\tsien\AppData\Local\Temp\ccVzEi8h.s 			page 88


 3554 0477 60000000 		.4byte	.LVL82
 3555 047b 0100     		.2byte	0x1
 3556 047d 51       		.byte	0x51
 3557 047e 60000000 		.4byte	.LVL82
 3558 0482 62000000 		.4byte	.LVL84
 3559 0486 0100     		.2byte	0x1
 3560 0488 55       		.byte	0x55
 3561 0489 62000000 		.4byte	.LVL84
 3562 048d 7C000000 		.4byte	.LFE6
 3563 0491 0400     		.2byte	0x4
 3564 0493 F3       		.byte	0xf3
 3565 0494 01       		.uleb128 0x1
 3566 0495 51       		.byte	0x51
 3567 0496 9F       		.byte	0x9f
 3568 0497 00000000 		.4byte	0
 3569 049b 00000000 		.4byte	0
 3570              	.LLST19:
 3571 049f 00000000 		.4byte	.LVL71
 3572 04a3 16000000 		.4byte	.LVL73
 3573 04a7 0100     		.2byte	0x1
 3574 04a9 52       		.byte	0x52
 3575 04aa 16000000 		.4byte	.LVL73
 3576 04ae 5E000000 		.4byte	.LVL81
 3577 04b2 0400     		.2byte	0x4
 3578 04b4 F3       		.byte	0xf3
 3579 04b5 01       		.uleb128 0x1
 3580 04b6 52       		.byte	0x52
 3581 04b7 9F       		.byte	0x9f
 3582 04b8 5E000000 		.4byte	.LVL81
 3583 04bc 60000000 		.4byte	.LVL82
 3584 04c0 0100     		.2byte	0x1
 3585 04c2 52       		.byte	0x52
 3586 04c3 60000000 		.4byte	.LVL82
 3587 04c7 7C000000 		.4byte	.LFE6
 3588 04cb 0400     		.2byte	0x4
 3589 04cd F3       		.byte	0xf3
 3590 04ce 01       		.uleb128 0x1
 3591 04cf 52       		.byte	0x52
 3592 04d0 9F       		.byte	0x9f
 3593 04d1 00000000 		.4byte	0
 3594 04d5 00000000 		.4byte	0
 3595              	.LLST20:
 3596 04d9 08000000 		.4byte	.LVL72
 3597 04dd 4E000000 		.4byte	.LVL80
 3598 04e1 0200     		.2byte	0x2
 3599 04e3 34       		.byte	0x34
 3600 04e4 9F       		.byte	0x9f
 3601 04e5 4E000000 		.4byte	.LVL80
 3602 04e9 5E000000 		.4byte	.LVL81
 3603 04ed 0100     		.2byte	0x1
 3604 04ef 50       		.byte	0x50
 3605 04f0 5E000000 		.4byte	.LVL81
 3606 04f4 60000000 		.4byte	.LVL82
 3607 04f8 0200     		.2byte	0x2
 3608 04fa 34       		.byte	0x34
 3609 04fb 9F       		.byte	0x9f
 3610 04fc 60000000 		.4byte	.LVL82
ARM GAS  C:\Users\tsien\AppData\Local\Temp\ccVzEi8h.s 			page 89


 3611 0500 7C000000 		.4byte	.LFE6
 3612 0504 0100     		.2byte	0x1
 3613 0506 50       		.byte	0x50
 3614 0507 00000000 		.4byte	0
 3615 050b 00000000 		.4byte	0
 3616              	.LLST21:
 3617 050f 24000000 		.4byte	.LVL75
 3618 0513 2E000000 		.4byte	.LVL77
 3619 0517 0100     		.2byte	0x1
 3620 0519 50       		.byte	0x50
 3621 051a 2E000000 		.4byte	.LVL77
 3622 051e 34000000 		.4byte	.LVL79
 3623 0522 0100     		.2byte	0x1
 3624 0524 57       		.byte	0x57
 3625 0525 34000000 		.4byte	.LVL79
 3626 0529 4D000000 		.4byte	.LVL80-1
 3627 052d 0100     		.2byte	0x1
 3628 052f 50       		.byte	0x50
 3629 0530 00000000 		.4byte	0
 3630 0534 00000000 		.4byte	0
 3631              	.LLST22:
 3632 0538 2C000000 		.4byte	.LVL76
 3633 053c 5E000000 		.4byte	.LVL81
 3634 0540 0100     		.2byte	0x1
 3635 0542 56       		.byte	0x56
 3636 0543 00000000 		.4byte	0
 3637 0547 00000000 		.4byte	0
 3638              	.LLST23:
 3639 054b 10000000 		.4byte	.LVL90
 3640 054f 1C000000 		.4byte	.LVL91
 3641 0553 0100     		.2byte	0x1
 3642 0555 52       		.byte	0x52
 3643 0556 1C000000 		.4byte	.LVL91
 3644 055a 26000000 		.4byte	.LVL94
 3645 055e 0100     		.2byte	0x1
 3646 0560 54       		.byte	0x54
 3647 0561 26000000 		.4byte	.LVL94
 3648 0565 30000000 		.4byte	.LFE11
 3649 0569 0100     		.2byte	0x1
 3650 056b 50       		.byte	0x50
 3651 056c 00000000 		.4byte	0
 3652 0570 00000000 		.4byte	0
 3653              	.LLST24:
 3654 0574 0E000000 		.4byte	.LVL96
 3655 0578 1A000000 		.4byte	.LVL98
 3656 057c 0100     		.2byte	0x1
 3657 057e 54       		.byte	0x54
 3658 057f 1A000000 		.4byte	.LVL98
 3659 0583 20000000 		.4byte	.LFE12
 3660 0587 0100     		.2byte	0x1
 3661 0589 50       		.byte	0x50
 3662 058a 00000000 		.4byte	0
 3663 058e 00000000 		.4byte	0
 3664              	.LLST25:
 3665 0592 02000000 		.4byte	.LVL99
 3666 0596 0E000000 		.4byte	.LVL101
 3667 059a 0400     		.2byte	0x4
ARM GAS  C:\Users\tsien\AppData\Local\Temp\ccVzEi8h.s 			page 90


 3668 059c 0A       		.byte	0xa
 3669 059d 204E     		.2byte	0x4e20
 3670 059f 9F       		.byte	0x9f
 3671 05a0 0E000000 		.4byte	.LVL101
 3672 05a4 26000000 		.4byte	.LVL105
 3673 05a8 0100     		.2byte	0x1
 3674 05aa 54       		.byte	0x54
 3675 05ab 26000000 		.4byte	.LVL105
 3676 05af 60000000 		.4byte	.LVL111
 3677 05b3 0400     		.2byte	0x4
 3678 05b5 0A       		.byte	0xa
 3679 05b6 204E     		.2byte	0x4e20
 3680 05b8 9F       		.byte	0x9f
 3681 05b9 60000000 		.4byte	.LVL111
 3682 05bd 76000000 		.4byte	.LVL115
 3683 05c1 0100     		.2byte	0x1
 3684 05c3 54       		.byte	0x54
 3685 05c4 76000000 		.4byte	.LVL115
 3686 05c8 78000000 		.4byte	.LVL116
 3687 05cc 0400     		.2byte	0x4
 3688 05ce 0A       		.byte	0xa
 3689 05cf 204E     		.2byte	0x4e20
 3690 05d1 9F       		.byte	0x9f
 3691 05d2 78000000 		.4byte	.LVL116
 3692 05d6 AE000000 		.4byte	.LVL120
 3693 05da 0100     		.2byte	0x1
 3694 05dc 54       		.byte	0x54
 3695 05dd 00000000 		.4byte	0
 3696 05e1 00000000 		.4byte	0
 3697              	.LLST26:
 3698 05e5 0A000000 		.4byte	.LVL100
 3699 05e9 AE000000 		.4byte	.LVL121
 3700 05ed 0100     		.2byte	0x1
 3701 05ef 55       		.byte	0x55
 3702 05f0 00000000 		.4byte	0
 3703 05f4 00000000 		.4byte	0
 3704              	.LLST27:
 3705 05f8 00000000 		.4byte	.LVL122
 3706 05fc 1A000000 		.4byte	.LVL125
 3707 0600 0100     		.2byte	0x1
 3708 0602 50       		.byte	0x50
 3709 0603 1A000000 		.4byte	.LVL125
 3710 0607 2A000000 		.4byte	.LVL127
 3711 060b 0200     		.2byte	0x2
 3712 060d 91       		.byte	0x91
 3713 060e 64       		.sleb128 -28
 3714 060f 2A000000 		.4byte	.LVL127
 3715 0613 44000000 		.4byte	.LVL132
 3716 0617 0100     		.2byte	0x1
 3717 0619 50       		.byte	0x50
 3718 061a 44000000 		.4byte	.LVL132
 3719 061e 48000000 		.4byte	.LVL133
 3720 0622 0200     		.2byte	0x2
 3721 0624 91       		.byte	0x91
 3722 0625 64       		.sleb128 -28
 3723 0626 48000000 		.4byte	.LVL133
 3724 062a 4A000000 		.4byte	.LVL134
ARM GAS  C:\Users\tsien\AppData\Local\Temp\ccVzEi8h.s 			page 91


 3725 062e 0100     		.2byte	0x1
 3726 0630 50       		.byte	0x50
 3727 0631 4A000000 		.4byte	.LVL134
 3728 0635 74000000 		.4byte	.LVL136
 3729 0639 0200     		.2byte	0x2
 3730 063b 91       		.byte	0x91
 3731 063c 64       		.sleb128 -28
 3732 063d 74000000 		.4byte	.LVL136
 3733 0641 AE000000 		.4byte	.LVL139
 3734 0645 0100     		.2byte	0x1
 3735 0647 54       		.byte	0x54
 3736 0648 00000000 		.4byte	0
 3737 064c 00000000 		.4byte	0
 3738              	.LLST28:
 3739 0650 00000000 		.4byte	.LVL122
 3740 0654 1D000000 		.4byte	.LVL126-1
 3741 0658 0100     		.2byte	0x1
 3742 065a 51       		.byte	0x51
 3743 065b 1D000000 		.4byte	.LVL126-1
 3744 065f 2A000000 		.4byte	.LVL127
 3745 0663 0100     		.2byte	0x1
 3746 0665 54       		.byte	0x54
 3747 0666 2A000000 		.4byte	.LVL127
 3748 066a 38000000 		.4byte	.LVL129
 3749 066e 0100     		.2byte	0x1
 3750 0670 51       		.byte	0x51
 3751 0671 38000000 		.4byte	.LVL129
 3752 0675 40000000 		.4byte	.LVL131
 3753 0679 0100     		.2byte	0x1
 3754 067b 54       		.byte	0x54
 3755 067c 40000000 		.4byte	.LVL131
 3756 0680 44000000 		.4byte	.LVL132
 3757 0684 0100     		.2byte	0x1
 3758 0686 51       		.byte	0x51
 3759 0687 44000000 		.4byte	.LVL132
 3760 068b 48000000 		.4byte	.LVL133
 3761 068f 0100     		.2byte	0x1
 3762 0691 54       		.byte	0x54
 3763 0692 48000000 		.4byte	.LVL133
 3764 0696 4A000000 		.4byte	.LVL134
 3765 069a 0100     		.2byte	0x1
 3766 069c 51       		.byte	0x51
 3767 069d 4A000000 		.4byte	.LVL134
 3768 06a1 70000000 		.4byte	.LVL135
 3769 06a5 0100     		.2byte	0x1
 3770 06a7 54       		.byte	0x54
 3771 06a8 70000000 		.4byte	.LVL135
 3772 06ac 84000000 		.4byte	.LVL137
 3773 06b0 0500     		.2byte	0x5
 3774 06b2 03       		.byte	0x3
 3775 06b3 00000000 		.4byte	Jetty_mstrWrBufPtr
 3776 06b7 84000000 		.4byte	.LVL137
 3777 06bb F8000000 		.4byte	.LFE0
 3778 06bf 0400     		.2byte	0x4
 3779 06c1 F3       		.byte	0xf3
 3780 06c2 01       		.uleb128 0x1
 3781 06c3 51       		.byte	0x51
ARM GAS  C:\Users\tsien\AppData\Local\Temp\ccVzEi8h.s 			page 92


 3782 06c4 9F       		.byte	0x9f
 3783 06c5 00000000 		.4byte	0
 3784 06c9 00000000 		.4byte	0
 3785              	.LLST29:
 3786 06cd 00000000 		.4byte	.LVL122
 3787 06d1 1D000000 		.4byte	.LVL126-1
 3788 06d5 0100     		.2byte	0x1
 3789 06d7 52       		.byte	0x52
 3790 06d8 1D000000 		.4byte	.LVL126-1
 3791 06dc 2A000000 		.4byte	.LVL127
 3792 06e0 0100     		.2byte	0x1
 3793 06e2 57       		.byte	0x57
 3794 06e3 2A000000 		.4byte	.LVL127
 3795 06e7 34000000 		.4byte	.LVL128
 3796 06eb 0100     		.2byte	0x1
 3797 06ed 52       		.byte	0x52
 3798 06ee 34000000 		.4byte	.LVL128
 3799 06f2 40000000 		.4byte	.LVL131
 3800 06f6 0100     		.2byte	0x1
 3801 06f8 57       		.byte	0x57
 3802 06f9 40000000 		.4byte	.LVL131
 3803 06fd 44000000 		.4byte	.LVL132
 3804 0701 0100     		.2byte	0x1
 3805 0703 52       		.byte	0x52
 3806 0704 44000000 		.4byte	.LVL132
 3807 0708 48000000 		.4byte	.LVL133
 3808 070c 0100     		.2byte	0x1
 3809 070e 57       		.byte	0x57
 3810 070f 48000000 		.4byte	.LVL133
 3811 0713 4A000000 		.4byte	.LVL134
 3812 0717 0100     		.2byte	0x1
 3813 0719 52       		.byte	0x52
 3814 071a 4A000000 		.4byte	.LVL134
 3815 071e B8000000 		.4byte	.LVL143
 3816 0722 0100     		.2byte	0x1
 3817 0724 57       		.byte	0x57
 3818 0725 B8000000 		.4byte	.LVL143
 3819 0729 F8000000 		.4byte	.LFE0
 3820 072d 0400     		.2byte	0x4
 3821 072f F3       		.byte	0xf3
 3822 0730 01       		.uleb128 0x1
 3823 0731 52       		.byte	0x52
 3824 0732 9F       		.byte	0x9f
 3825 0733 00000000 		.4byte	0
 3826 0737 00000000 		.4byte	0
 3827              	.LLST30:
 3828 073b 00000000 		.4byte	.LVL122
 3829 073f 12000000 		.4byte	.LVL124
 3830 0743 0100     		.2byte	0x1
 3831 0745 53       		.byte	0x53
 3832 0746 12000000 		.4byte	.LVL124
 3833 074a 40000000 		.4byte	.LVL131
 3834 074e 0100     		.2byte	0x1
 3835 0750 55       		.byte	0x55
 3836 0751 40000000 		.4byte	.LVL131
 3837 0755 44000000 		.4byte	.LVL132
 3838 0759 0100     		.2byte	0x1
ARM GAS  C:\Users\tsien\AppData\Local\Temp\ccVzEi8h.s 			page 93


 3839 075b 53       		.byte	0x53
 3840 075c 44000000 		.4byte	.LVL132
 3841 0760 B8000000 		.4byte	.LVL141
 3842 0764 0100     		.2byte	0x1
 3843 0766 55       		.byte	0x55
 3844 0767 B8000000 		.4byte	.LVL141
 3845 076b F8000000 		.4byte	.LFE0
 3846 076f 0400     		.2byte	0x4
 3847 0771 F3       		.byte	0xf3
 3848 0772 01       		.uleb128 0x1
 3849 0773 53       		.byte	0x53
 3850 0774 9F       		.byte	0x9f
 3851 0775 00000000 		.4byte	0
 3852 0779 00000000 		.4byte	0
 3853              	.LLST31:
 3854 077d 0C000000 		.4byte	.LVL123
 3855 0781 3C000000 		.4byte	.LVL130
 3856 0785 0200     		.2byte	0x2
 3857 0787 34       		.byte	0x34
 3858 0788 9F       		.byte	0x9f
 3859 0789 3C000000 		.4byte	.LVL130
 3860 078d 40000000 		.4byte	.LVL131
 3861 0791 0200     		.2byte	0x2
 3862 0793 30       		.byte	0x30
 3863 0794 9F       		.byte	0x9f
 3864 0795 40000000 		.4byte	.LVL131
 3865 0799 4A000000 		.4byte	.LVL134
 3866 079d 0200     		.2byte	0x2
 3867 079f 34       		.byte	0x34
 3868 07a0 9F       		.byte	0x9f
 3869 07a1 4A000000 		.4byte	.LVL134
 3870 07a5 B8000000 		.4byte	.LVL142
 3871 07a9 0100     		.2byte	0x1
 3872 07ab 56       		.byte	0x56
 3873 07ac B8000000 		.4byte	.LVL142
 3874 07b0 F8000000 		.4byte	.LFE0
 3875 07b4 0100     		.2byte	0x1
 3876 07b6 50       		.byte	0x50
 3877 07b7 00000000 		.4byte	0
 3878 07bb 00000000 		.4byte	0
 3879              	.LLST32:
 3880 07bf 00000000 		.4byte	.LVL144
 3881 07c3 1A000000 		.4byte	.LVL147
 3882 07c7 0100     		.2byte	0x1
 3883 07c9 50       		.byte	0x50
 3884 07ca 1A000000 		.4byte	.LVL147
 3885 07ce 2A000000 		.4byte	.LVL149
 3886 07d2 0200     		.2byte	0x2
 3887 07d4 91       		.byte	0x91
 3888 07d5 64       		.sleb128 -28
 3889 07d6 2A000000 		.4byte	.LVL149
 3890 07da 44000000 		.4byte	.LVL154
 3891 07de 0100     		.2byte	0x1
 3892 07e0 50       		.byte	0x50
 3893 07e1 44000000 		.4byte	.LVL154
 3894 07e5 48000000 		.4byte	.LVL155
 3895 07e9 0200     		.2byte	0x2
ARM GAS  C:\Users\tsien\AppData\Local\Temp\ccVzEi8h.s 			page 94


 3896 07eb 91       		.byte	0x91
 3897 07ec 64       		.sleb128 -28
 3898 07ed 48000000 		.4byte	.LVL155
 3899 07f1 4A000000 		.4byte	.LVL156
 3900 07f5 0100     		.2byte	0x1
 3901 07f7 50       		.byte	0x50
 3902 07f8 4A000000 		.4byte	.LVL156
 3903 07fc 74000000 		.4byte	.LVL158
 3904 0800 0200     		.2byte	0x2
 3905 0802 91       		.byte	0x91
 3906 0803 64       		.sleb128 -28
 3907 0804 74000000 		.4byte	.LVL158
 3908 0808 C2000000 		.4byte	.LVL161
 3909 080c 0100     		.2byte	0x1
 3910 080e 54       		.byte	0x54
 3911 080f 00000000 		.4byte	0
 3912 0813 00000000 		.4byte	0
 3913              	.LLST33:
 3914 0817 00000000 		.4byte	.LVL144
 3915 081b 1D000000 		.4byte	.LVL148-1
 3916 081f 0100     		.2byte	0x1
 3917 0821 51       		.byte	0x51
 3918 0822 1D000000 		.4byte	.LVL148-1
 3919 0826 2A000000 		.4byte	.LVL149
 3920 082a 0100     		.2byte	0x1
 3921 082c 54       		.byte	0x54
 3922 082d 2A000000 		.4byte	.LVL149
 3923 0831 38000000 		.4byte	.LVL151
 3924 0835 0100     		.2byte	0x1
 3925 0837 51       		.byte	0x51
 3926 0838 38000000 		.4byte	.LVL151
 3927 083c 40000000 		.4byte	.LVL153
 3928 0840 0100     		.2byte	0x1
 3929 0842 54       		.byte	0x54
 3930 0843 40000000 		.4byte	.LVL153
 3931 0847 44000000 		.4byte	.LVL154
 3932 084b 0100     		.2byte	0x1
 3933 084d 51       		.byte	0x51
 3934 084e 44000000 		.4byte	.LVL154
 3935 0852 48000000 		.4byte	.LVL155
 3936 0856 0100     		.2byte	0x1
 3937 0858 54       		.byte	0x54
 3938 0859 48000000 		.4byte	.LVL155
 3939 085d 4A000000 		.4byte	.LVL156
 3940 0861 0100     		.2byte	0x1
 3941 0863 51       		.byte	0x51
 3942 0864 4A000000 		.4byte	.LVL156
 3943 0868 6C000000 		.4byte	.LVL157
 3944 086c 0100     		.2byte	0x1
 3945 086e 54       		.byte	0x54
 3946 086f 6C000000 		.4byte	.LVL157
 3947 0873 82000000 		.4byte	.LVL159
 3948 0877 0500     		.2byte	0x5
 3949 0879 03       		.byte	0x3
 3950 087a 00000000 		.4byte	Jetty_mstrRdBufPtr
 3951 087e 82000000 		.4byte	.LVL159
 3952 0882 08010000 		.4byte	.LFE1
ARM GAS  C:\Users\tsien\AppData\Local\Temp\ccVzEi8h.s 			page 95


 3953 0886 0400     		.2byte	0x4
 3954 0888 F3       		.byte	0xf3
 3955 0889 01       		.uleb128 0x1
 3956 088a 51       		.byte	0x51
 3957 088b 9F       		.byte	0x9f
 3958 088c 00000000 		.4byte	0
 3959 0890 00000000 		.4byte	0
 3960              	.LLST34:
 3961 0894 00000000 		.4byte	.LVL144
 3962 0898 1D000000 		.4byte	.LVL148-1
 3963 089c 0100     		.2byte	0x1
 3964 089e 52       		.byte	0x52
 3965 089f 1D000000 		.4byte	.LVL148-1
 3966 08a3 2A000000 		.4byte	.LVL149
 3967 08a7 0100     		.2byte	0x1
 3968 08a9 57       		.byte	0x57
 3969 08aa 2A000000 		.4byte	.LVL149
 3970 08ae 34000000 		.4byte	.LVL150
 3971 08b2 0100     		.2byte	0x1
 3972 08b4 52       		.byte	0x52
 3973 08b5 34000000 		.4byte	.LVL150
 3974 08b9 40000000 		.4byte	.LVL153
 3975 08bd 0100     		.2byte	0x1
 3976 08bf 57       		.byte	0x57
 3977 08c0 40000000 		.4byte	.LVL153
 3978 08c4 44000000 		.4byte	.LVL154
 3979 08c8 0100     		.2byte	0x1
 3980 08ca 52       		.byte	0x52
 3981 08cb 44000000 		.4byte	.LVL154
 3982 08cf 48000000 		.4byte	.LVL155
 3983 08d3 0100     		.2byte	0x1
 3984 08d5 57       		.byte	0x57
 3985 08d6 48000000 		.4byte	.LVL155
 3986 08da 4A000000 		.4byte	.LVL156
 3987 08de 0100     		.2byte	0x1
 3988 08e0 52       		.byte	0x52
 3989 08e1 4A000000 		.4byte	.LVL156
 3990 08e5 CC000000 		.4byte	.LVL165
 3991 08e9 0100     		.2byte	0x1
 3992 08eb 57       		.byte	0x57
 3993 08ec CC000000 		.4byte	.LVL165
 3994 08f0 08010000 		.4byte	.LFE1
 3995 08f4 0400     		.2byte	0x4
 3996 08f6 F3       		.byte	0xf3
 3997 08f7 01       		.uleb128 0x1
 3998 08f8 52       		.byte	0x52
 3999 08f9 9F       		.byte	0x9f
 4000 08fa 00000000 		.4byte	0
 4001 08fe 00000000 		.4byte	0
 4002              	.LLST35:
 4003 0902 00000000 		.4byte	.LVL144
 4004 0906 12000000 		.4byte	.LVL146
 4005 090a 0100     		.2byte	0x1
 4006 090c 53       		.byte	0x53
 4007 090d 12000000 		.4byte	.LVL146
 4008 0911 40000000 		.4byte	.LVL153
 4009 0915 0100     		.2byte	0x1
ARM GAS  C:\Users\tsien\AppData\Local\Temp\ccVzEi8h.s 			page 96


 4010 0917 55       		.byte	0x55
 4011 0918 40000000 		.4byte	.LVL153
 4012 091c 44000000 		.4byte	.LVL154
 4013 0920 0100     		.2byte	0x1
 4014 0922 53       		.byte	0x53
 4015 0923 44000000 		.4byte	.LVL154
 4016 0927 CC000000 		.4byte	.LVL163
 4017 092b 0100     		.2byte	0x1
 4018 092d 55       		.byte	0x55
 4019 092e CC000000 		.4byte	.LVL163
 4020 0932 08010000 		.4byte	.LFE1
 4021 0936 0400     		.2byte	0x4
 4022 0938 F3       		.byte	0xf3
 4023 0939 01       		.uleb128 0x1
 4024 093a 53       		.byte	0x53
 4025 093b 9F       		.byte	0x9f
 4026 093c 00000000 		.4byte	0
 4027 0940 00000000 		.4byte	0
 4028              	.LLST36:
 4029 0944 0C000000 		.4byte	.LVL145
 4030 0948 3C000000 		.4byte	.LVL152
 4031 094c 0200     		.2byte	0x2
 4032 094e 34       		.byte	0x34
 4033 094f 9F       		.byte	0x9f
 4034 0950 3C000000 		.4byte	.LVL152
 4035 0954 40000000 		.4byte	.LVL153
 4036 0958 0200     		.2byte	0x2
 4037 095a 30       		.byte	0x30
 4038 095b 9F       		.byte	0x9f
 4039 095c 40000000 		.4byte	.LVL153
 4040 0960 4A000000 		.4byte	.LVL156
 4041 0964 0200     		.2byte	0x2
 4042 0966 34       		.byte	0x34
 4043 0967 9F       		.byte	0x9f
 4044 0968 4A000000 		.4byte	.LVL156
 4045 096c CC000000 		.4byte	.LVL164
 4046 0970 0100     		.2byte	0x1
 4047 0972 56       		.byte	0x56
 4048 0973 CC000000 		.4byte	.LVL164
 4049 0977 08010000 		.4byte	.LFE1
 4050 097b 0100     		.2byte	0x1
 4051 097d 50       		.byte	0x50
 4052 097e 00000000 		.4byte	0
 4053 0982 00000000 		.4byte	0
 4054              	.LLST37:
 4055 0986 00000000 		.4byte	.LVL166
 4056 098a 16000000 		.4byte	.LVL169
 4057 098e 0100     		.2byte	0x1
 4058 0990 50       		.byte	0x50
 4059 0991 16000000 		.4byte	.LVL169
 4060 0995 1A000000 		.4byte	.LVL170
 4061 0999 0400     		.2byte	0x4
 4062 099b F3       		.byte	0xf3
 4063 099c 01       		.uleb128 0x1
 4064 099d 50       		.byte	0x50
 4065 099e 9F       		.byte	0x9f
 4066 099f 1A000000 		.4byte	.LVL170
ARM GAS  C:\Users\tsien\AppData\Local\Temp\ccVzEi8h.s 			page 97


 4067 09a3 38000000 		.4byte	.LVL173
 4068 09a7 0100     		.2byte	0x1
 4069 09a9 54       		.byte	0x54
 4070 09aa 54000000 		.4byte	.LVL179
 4071 09ae 56000000 		.4byte	.LVL180
 4072 09b2 0100     		.2byte	0x1
 4073 09b4 50       		.byte	0x50
 4074 09b5 00000000 		.4byte	0
 4075 09b9 00000000 		.4byte	0
 4076              	.LLST38:
 4077 09bd 00000000 		.4byte	.LVL166
 4078 09c1 33000000 		.4byte	.LVL172-1
 4079 09c5 0100     		.2byte	0x1
 4080 09c7 51       		.byte	0x51
 4081 09c8 33000000 		.4byte	.LVL172-1
 4082 09cc 54000000 		.4byte	.LVL179
 4083 09d0 0400     		.2byte	0x4
 4084 09d2 F3       		.byte	0xf3
 4085 09d3 01       		.uleb128 0x1
 4086 09d4 51       		.byte	0x51
 4087 09d5 9F       		.byte	0x9f
 4088 09d6 54000000 		.4byte	.LVL179
 4089 09da 56000000 		.4byte	.LVL180
 4090 09de 0100     		.2byte	0x1
 4091 09e0 51       		.byte	0x51
 4092 09e1 56000000 		.4byte	.LVL180
 4093 09e5 68000000 		.4byte	.LFE3
 4094 09e9 0400     		.2byte	0x4
 4095 09eb F3       		.byte	0xf3
 4096 09ec 01       		.uleb128 0x1
 4097 09ed 51       		.byte	0x51
 4098 09ee 9F       		.byte	0x9f
 4099 09ef 00000000 		.4byte	0
 4100 09f3 00000000 		.4byte	0
 4101              	.LLST39:
 4102 09f7 00000000 		.4byte	.LVL166
 4103 09fb 12000000 		.4byte	.LVL168
 4104 09ff 0100     		.2byte	0x1
 4105 0a01 52       		.byte	0x52
 4106 0a02 12000000 		.4byte	.LVL168
 4107 0a06 54000000 		.4byte	.LVL179
 4108 0a0a 0400     		.2byte	0x4
 4109 0a0c F3       		.byte	0xf3
 4110 0a0d 01       		.uleb128 0x1
 4111 0a0e 52       		.byte	0x52
 4112 0a0f 9F       		.byte	0x9f
 4113 0a10 54000000 		.4byte	.LVL179
 4114 0a14 56000000 		.4byte	.LVL180
 4115 0a18 0100     		.2byte	0x1
 4116 0a1a 52       		.byte	0x52
 4117 0a1b 56000000 		.4byte	.LVL180
 4118 0a1f 68000000 		.4byte	.LFE3
 4119 0a23 0400     		.2byte	0x4
 4120 0a25 F3       		.byte	0xf3
 4121 0a26 01       		.uleb128 0x1
 4122 0a27 52       		.byte	0x52
 4123 0a28 9F       		.byte	0x9f
ARM GAS  C:\Users\tsien\AppData\Local\Temp\ccVzEi8h.s 			page 98


 4124 0a29 00000000 		.4byte	0
 4125 0a2d 00000000 		.4byte	0
 4126              	.LLST40:
 4127 0a31 04000000 		.4byte	.LVL167
 4128 0a35 52000000 		.4byte	.LVL178
 4129 0a39 0200     		.2byte	0x2
 4130 0a3b 34       		.byte	0x34
 4131 0a3c 9F       		.byte	0x9f
 4132 0a3d 52000000 		.4byte	.LVL178
 4133 0a41 54000000 		.4byte	.LVL179
 4134 0a45 0100     		.2byte	0x1
 4135 0a47 50       		.byte	0x50
 4136 0a48 54000000 		.4byte	.LVL179
 4137 0a4c 56000000 		.4byte	.LVL180
 4138 0a50 0200     		.2byte	0x2
 4139 0a52 34       		.byte	0x34
 4140 0a53 9F       		.byte	0x9f
 4141 0a54 56000000 		.4byte	.LVL180
 4142 0a58 68000000 		.4byte	.LFE3
 4143 0a5c 0100     		.2byte	0x1
 4144 0a5e 50       		.byte	0x50
 4145 0a5f 00000000 		.4byte	0
 4146 0a63 00000000 		.4byte	0
 4147              	.LLST41:
 4148 0a67 44000000 		.4byte	.LVL174
 4149 0a6b 46000000 		.4byte	.LVL175
 4150 0a6f 0100     		.2byte	0x1
 4151 0a71 50       		.byte	0x50
 4152 0a72 46000000 		.4byte	.LVL175
 4153 0a76 4C000000 		.4byte	.LVL177
 4154 0a7a 0100     		.2byte	0x1
 4155 0a7c 54       		.byte	0x54
 4156 0a7d 4C000000 		.4byte	.LVL177
 4157 0a81 51000000 		.4byte	.LVL178-1
 4158 0a85 0100     		.2byte	0x1
 4159 0a87 50       		.byte	0x50
 4160 0a88 00000000 		.4byte	0
 4161 0a8c 00000000 		.4byte	0
 4162              		.section	.debug_aranges,"",%progbits
 4163 0000 94000000 		.4byte	0x94
 4164 0004 0200     		.2byte	0x2
 4165 0006 00000000 		.4byte	.Ldebug_info0
 4166 000a 04       		.byte	0x4
 4167 000b 00       		.byte	0
 4168 000c 0000     		.2byte	0
 4169 000e 0000     		.2byte	0
 4170 0010 00000000 		.4byte	.LFB15
 4171 0014 28000000 		.4byte	.LFE15-.LFB15
 4172 0018 00000000 		.4byte	.LFB14
 4173 001c C4000000 		.4byte	.LFE14-.LFB14
 4174 0020 00000000 		.4byte	.LFB2
 4175 0024 C4000000 		.4byte	.LFE2-.LFB2
 4176 0028 00000000 		.4byte	.LFB4
 4177 002c 58000000 		.4byte	.LFE4-.LFB4
 4178 0030 00000000 		.4byte	.LFB5
 4179 0034 48000000 		.4byte	.LFE5-.LFB5
 4180 0038 00000000 		.4byte	.LFB6
ARM GAS  C:\Users\tsien\AppData\Local\Temp\ccVzEi8h.s 			page 99


 4181 003c 7C000000 		.4byte	.LFE6-.LFB6
 4182 0040 00000000 		.4byte	.LFB7
 4183 0044 0C000000 		.4byte	.LFE7-.LFB7
 4184 0048 00000000 		.4byte	.LFB8
 4185 004c 0C000000 		.4byte	.LFE8-.LFB8
 4186 0050 00000000 		.4byte	.LFB9
 4187 0054 28000000 		.4byte	.LFE9-.LFB9
 4188 0058 00000000 		.4byte	.LFB10
 4189 005c 28000000 		.4byte	.LFE10-.LFB10
 4190 0060 00000000 		.4byte	.LFB11
 4191 0064 30000000 		.4byte	.LFE11-.LFB11
 4192 0068 00000000 		.4byte	.LFB12
 4193 006c 20000000 		.4byte	.LFE12-.LFB12
 4194 0070 00000000 		.4byte	.LFB13
 4195 0074 C4000000 		.4byte	.LFE13-.LFB13
 4196 0078 00000000 		.4byte	.LFB0
 4197 007c F8000000 		.4byte	.LFE0-.LFB0
 4198 0080 00000000 		.4byte	.LFB1
 4199 0084 08010000 		.4byte	.LFE1-.LFB1
 4200 0088 00000000 		.4byte	.LFB3
 4201 008c 68000000 		.4byte	.LFE3-.LFB3
 4202 0090 00000000 		.4byte	0
 4203 0094 00000000 		.4byte	0
 4204              		.section	.debug_ranges,"",%progbits
 4205              	.Ldebug_ranges0:
 4206 0000 00000000 		.4byte	.LFB15
 4207 0004 28000000 		.4byte	.LFE15
 4208 0008 00000000 		.4byte	.LFB14
 4209 000c C4000000 		.4byte	.LFE14
 4210 0010 00000000 		.4byte	.LFB2
 4211 0014 C4000000 		.4byte	.LFE2
 4212 0018 00000000 		.4byte	.LFB4
 4213 001c 58000000 		.4byte	.LFE4
 4214 0020 00000000 		.4byte	.LFB5
 4215 0024 48000000 		.4byte	.LFE5
 4216 0028 00000000 		.4byte	.LFB6
 4217 002c 7C000000 		.4byte	.LFE6
 4218 0030 00000000 		.4byte	.LFB7
 4219 0034 0C000000 		.4byte	.LFE7
 4220 0038 00000000 		.4byte	.LFB8
 4221 003c 0C000000 		.4byte	.LFE8
 4222 0040 00000000 		.4byte	.LFB9
 4223 0044 28000000 		.4byte	.LFE9
 4224 0048 00000000 		.4byte	.LFB10
 4225 004c 28000000 		.4byte	.LFE10
 4226 0050 00000000 		.4byte	.LFB11
 4227 0054 30000000 		.4byte	.LFE11
 4228 0058 00000000 		.4byte	.LFB12
 4229 005c 20000000 		.4byte	.LFE12
 4230 0060 00000000 		.4byte	.LFB13
 4231 0064 C4000000 		.4byte	.LFE13
 4232 0068 00000000 		.4byte	.LFB0
 4233 006c F8000000 		.4byte	.LFE0
 4234 0070 00000000 		.4byte	.LFB1
 4235 0074 08010000 		.4byte	.LFE1
 4236 0078 00000000 		.4byte	.LFB3
 4237 007c 68000000 		.4byte	.LFE3
ARM GAS  C:\Users\tsien\AppData\Local\Temp\ccVzEi8h.s 			page 100


 4238 0080 00000000 		.4byte	0
 4239 0084 00000000 		.4byte	0
 4240              		.section	.debug_line,"",%progbits
 4241              	.Ldebug_line0:
 4242 0000 3D030000 		.section	.debug_str,"MS",%progbits,1
 4242      02008900 
 4242      00000201 
 4242      FB0E0D00 
 4242      01010101 
 4243              	.LASF10:
 4244 0000 75696E74 		.ascii	"uint16\000"
 4244      313600
 4245              	.LASF54:
 4246 0007 4A657474 		.ascii	"Jetty_mstrControl\000"
 4246      795F6D73 
 4246      7472436F 
 4246      6E74726F 
 4246      6C00
 4247              	.LASF18:
 4248 0019 6F6E6555 		.ascii	"oneUnit\000"
 4248      6E697400 
 4249              	.LASF36:
 4250 0021 72644279 		.ascii	"rdByte\000"
 4250      746500
 4251              	.LASF39:
 4252 0028 4A657474 		.ascii	"Jetty_I2CMasterGetWriteBufSize\000"
 4252      795F4932 
 4252      434D6173 
 4252      74657247 
 4252      65745772 
 4253              	.LASF69:
 4254 0047 474E5520 		.ascii	"GNU C11 5.4.1 20160609 (release) [ARM/embedded-5-br"
 4254      43313120 
 4254      352E342E 
 4254      31203230 
 4254      31363036 
 4255 007a 616E6368 		.ascii	"anch revision 237715] -mcpu=cortex-m0 -mthumb -g -O"
 4255      20726576 
 4255      6973696F 
 4255      6E203233 
 4255      37373135 
 4256 00ad 67202D66 		.ascii	"g -ffunction-sections -ffat-lto-objects\000"
 4256      66756E63 
 4256      74696F6E 
 4256      2D736563 
 4256      74696F6E 
 4257              	.LASF34:
 4258 00d5 4A657474 		.ascii	"Jetty_I2CMasterReadByte\000"
 4258      795F4932 
 4258      434D6173 
 4258      74657252 
 4258      65616442 
 4259              	.LASF7:
 4260 00ed 6C6F6E67 		.ascii	"long long unsigned int\000"
 4260      206C6F6E 
 4260      6720756E 
 4260      7369676E 
ARM GAS  C:\Users\tsien\AppData\Local\Temp\ccVzEi8h.s 			page 101


 4260      65642069 
 4261              	.LASF37:
 4262 0104 72784E6F 		.ascii	"rxNotEmpty\000"
 4262      74456D70 
 4262      747900
 4263              	.LASF6:
 4264 010f 6C6F6E67 		.ascii	"long long int\000"
 4264      206C6F6E 
 4264      6720696E 
 4264      7400
 4265              	.LASF0:
 4266 011d 7369676E 		.ascii	"signed char\000"
 4266      65642063 
 4266      68617200 
 4267              	.LASF50:
 4268 0129 72644461 		.ascii	"rdData\000"
 4268      746100
 4269              	.LASF4:
 4270 0130 6C6F6E67 		.ascii	"long int\000"
 4270      20696E74 
 4270      00
 4271              	.LASF31:
 4272 0139 4A657474 		.ascii	"Jetty_I2CMasterSendStop\000"
 4272      795F4932 
 4272      434D6173 
 4272      74657253 
 4272      656E6453 
 4273              	.LASF58:
 4274 0151 4A657474 		.ascii	"Jetty_mstrWrBufPtr\000"
 4274      795F6D73 
 4274      74725772 
 4274      42756650 
 4274      747200
 4275              	.LASF9:
 4276 0164 75696E74 		.ascii	"uint8\000"
 4276      3800
 4277              	.LASF62:
 4278 016a 43794465 		.ascii	"CyDelayUs\000"
 4278      6C617955 
 4278      7300
 4279              	.LASF13:
 4280 0174 646F7562 		.ascii	"double\000"
 4280      6C6500
 4281              	.LASF40:
 4282 017b 4A657474 		.ascii	"Jetty_I2CMasterClearReadBuf\000"
 4282      795F4932 
 4282      434D6173 
 4282      74657243 
 4282      6C656172 
 4283              	.LASF11:
 4284 0197 75696E74 		.ascii	"uint32\000"
 4284      333200
 4285              	.LASF21:
 4286 019e 4A657474 		.ascii	"Jetty_I2CMasterHandleStatus\000"
 4286      795F4932 
 4286      434D6173 
 4286      74657248 
ARM GAS  C:\Users\tsien\AppData\Local\Temp\ccVzEi8h.s 			page 102


 4286      616E646C 
 4287              	.LASF52:
 4288 01ba 4A657474 		.ascii	"Jetty_state\000"
 4288      795F7374 
 4288      61746500 
 4289              	.LASF24:
 4290 01c6 72657365 		.ascii	"resetBlock\000"
 4290      74426C6F 
 4290      636B00
 4291              	.LASF61:
 4292 01d1 4A657474 		.ascii	"Jetty_mstrWrBufIndexTmp\000"
 4292      795F6D73 
 4292      74725772 
 4292      42756649 
 4292      6E646578 
 4293              	.LASF8:
 4294 01e9 756E7369 		.ascii	"unsigned int\000"
 4294      676E6564 
 4294      20696E74 
 4294      00
 4295              	.LASF5:
 4296 01f6 6C6F6E67 		.ascii	"long unsigned int\000"
 4296      20756E73 
 4296      69676E65 
 4296      6420696E 
 4296      7400
 4297              	.LASF35:
 4298 0208 61636B4E 		.ascii	"ackNack\000"
 4298      61636B00 
 4299              	.LASF22:
 4300 0210 74696D65 		.ascii	"timeout\000"
 4300      6F757400 
 4301              	.LASF28:
 4302 0218 65727253 		.ascii	"errStatus\000"
 4302      74617475 
 4302      7300
 4303              	.LASF3:
 4304 0222 73686F72 		.ascii	"short unsigned int\000"
 4304      7420756E 
 4304      7369676E 
 4304      65642069 
 4304      6E7400
 4305              	.LASF30:
 4306 0235 4A657474 		.ascii	"Jetty_I2CMasterSendStart\000"
 4306      795F4932 
 4306      434D6173 
 4306      74657253 
 4306      656E6453 
 4307              	.LASF64:
 4308 024e 4379496E 		.ascii	"CyIntDisable\000"
 4308      74446973 
 4308      61626C65 
 4308      00
 4309              	.LASF26:
 4310 025b 62697452 		.ascii	"bitRnW\000"
 4310      6E5700
 4311              	.LASF15:
ARM GAS  C:\Users\tsien\AppData\Local\Temp\ccVzEi8h.s 			page 103


 4312 0262 72656733 		.ascii	"reg32\000"
 4312      3200
 4313              	.LASF17:
 4314 0268 73697A65 		.ascii	"sizetype\000"
 4314      74797065 
 4314      00
 4315              	.LASF49:
 4316 0271 4A657474 		.ascii	"Jetty_I2CMasterReadBuf\000"
 4316      795F4932 
 4316      434D6173 
 4316      74657252 
 4316      65616442 
 4317              	.LASF16:
 4318 0288 6C6F6E67 		.ascii	"long double\000"
 4318      20646F75 
 4318      626C6500 
 4319              	.LASF57:
 4320 0294 4A657474 		.ascii	"Jetty_mstrRdBufIndex\000"
 4320      795F6D73 
 4320      74725264 
 4320      42756649 
 4320      6E646578 
 4321              	.LASF42:
 4322 02a9 4A657474 		.ascii	"Jetty_I2CMasterStatus\000"
 4322      795F4932 
 4322      434D6173 
 4322      74657253 
 4322      74617475 
 4323              	.LASF12:
 4324 02bf 666C6F61 		.ascii	"float\000"
 4324      7400
 4325              	.LASF20:
 4326 02c5 4A657474 		.ascii	"Jetty_I2CMasterWaitOneUnit\000"
 4326      795F4932 
 4326      434D6173 
 4326      74657257 
 4326      6169744F 
 4327              	.LASF45:
 4328 02e0 72656164 		.ascii	"readDirection\000"
 4328      44697265 
 4328      6374696F 
 4328      6E00
 4329              	.LASF43:
 4330 02ee 4A657474 		.ascii	"Jetty_I2CMasterClearStatus\000"
 4330      795F4932 
 4330      434D6173 
 4330      74657243 
 4330      6C656172 
 4331              	.LASF25:
 4332 0309 736C6176 		.ascii	"slaveAddress\000"
 4332      65416464 
 4332      72657373 
 4332      00
 4333              	.LASF1:
 4334 0316 756E7369 		.ascii	"unsigned char\000"
 4334      676E6564 
 4334      20636861 
ARM GAS  C:\Users\tsien\AppData\Local\Temp\ccVzEi8h.s 			page 104


 4334      7200
 4335              	.LASF2:
 4336 0324 73686F72 		.ascii	"short int\000"
 4336      7420696E 
 4336      7400
 4337              	.LASF60:
 4338 032e 4A657474 		.ascii	"Jetty_mstrWrBufIndex\000"
 4338      795F6D73 
 4338      74725772 
 4338      42756649 
 4338      6E646578 
 4339              	.LASF65:
 4340 0343 4379496E 		.ascii	"CyIntEnable\000"
 4340      74456E61 
 4340      626C6500 
 4341              	.LASF71:
 4342 034f 433A5C55 		.ascii	"C:\\Users\\tsien\\Documents\\GitHub\\Battery_Manage"
 4342      73657273 
 4342      5C747369 
 4342      656E5C44 
 4342      6F63756D 
 4343 037d 6D656E74 		.ascii	"ment_Board_PY2023\\BatteryBalance\\BatteryBalance.c"
 4343      5F426F61 
 4343      72645F50 
 4343      59323032 
 4343      335C4261 
 4344 03ae 7964736E 		.ascii	"ydsn\000"
 4344      00
 4345              	.LASF56:
 4346 03b3 4A657474 		.ascii	"Jetty_mstrRdBufSize\000"
 4346      795F6D73 
 4346      74725264 
 4346      42756653 
 4346      697A6500 
 4347              	.LASF46:
 4348 03c7 4A657474 		.ascii	"Jetty_I2CMasterWriteBuf\000"
 4348      795F4932 
 4348      434D6173 
 4348      74657257 
 4348      72697465 
 4349              	.LASF29:
 4350 03df 6C6F6353 		.ascii	"locStatus\000"
 4350      74617475 
 4350      7300
 4351              	.LASF53:
 4352 03e9 4A657474 		.ascii	"Jetty_mstrStatus\000"
 4352      795F6D73 
 4352      74725374 
 4352      61747573 
 4352      00
 4353              	.LASF38:
 4354 03fa 4A657474 		.ascii	"Jetty_I2CMasterGetReadBufSize\000"
 4354      795F4932 
 4354      434D6173 
 4354      74657247 
 4354      65745265 
 4355              	.LASF33:
ARM GAS  C:\Users\tsien\AppData\Local\Temp\ccVzEi8h.s 			page 105


 4356 0418 77724279 		.ascii	"wrByte\000"
 4356      746500
 4357              	.LASF14:
 4358 041f 63686172 		.ascii	"char\000"
 4358      00
 4359              	.LASF48:
 4360 0424 6D6F6465 		.ascii	"mode\000"
 4360      00
 4361              	.LASF66:
 4362 0429 4A657474 		.ascii	"Jetty_sda_Read\000"
 4362      795F7364 
 4362      615F5265 
 4362      616400
 4363              	.LASF67:
 4364 0438 4A657474 		.ascii	"Jetty_scl_Write\000"
 4364      795F7363 
 4364      6C5F5772 
 4364      69746500 
 4365              	.LASF68:
 4366 0448 4A657474 		.ascii	"Jetty_scl_Read\000"
 4366      795F7363 
 4366      6C5F5265 
 4366      616400
 4367              	.LASF44:
 4368 0457 4A657474 		.ascii	"Jetty_I2CReStartGeneration\000"
 4368      795F4932 
 4368      43526553 
 4368      74617274 
 4368      47656E65 
 4369              	.LASF59:
 4370 0472 4A657474 		.ascii	"Jetty_mstrWrBufSize\000"
 4370      795F6D73 
 4370      74725772 
 4370      42756653 
 4370      697A6500 
 4371              	.LASF27:
 4372 0486 74696D65 		.ascii	"timeoutMs\000"
 4372      6F75744D 
 4372      7300
 4373              	.LASF47:
 4374 0490 77724461 		.ascii	"wrData\000"
 4374      746100
 4375              	.LASF19:
 4376 0497 73746174 		.ascii	"status\000"
 4376      757300
 4377              	.LASF41:
 4378 049e 4A657474 		.ascii	"Jetty_I2CMasterClearWriteBuf\000"
 4378      795F4932 
 4378      434D6173 
 4378      74657243 
 4378      6C656172 
 4379              	.LASF55:
 4380 04bb 4A657474 		.ascii	"Jetty_mstrRdBufPtr\000"
 4380      795F6D73 
 4380      74725264 
 4380      42756650 
 4380      747200
ARM GAS  C:\Users\tsien\AppData\Local\Temp\ccVzEi8h.s 			page 106


 4381              	.LASF70:
 4382 04ce 47656E65 		.ascii	"Generated_Source\\PSoC4\\Jetty_I2C_MASTER.c\000"
 4382      72617465 
 4382      645F536F 
 4382      75726365 
 4382      5C50536F 
 4383              	.LASF32:
 4384 04f8 4A657474 		.ascii	"Jetty_I2CMasterWriteByte\000"
 4384      795F4932 
 4384      434D6173 
 4384      74657257 
 4384      72697465 
 4385              	.LASF23:
 4386 0511 72657453 		.ascii	"retStatus\000"
 4386      74617475 
 4386      7300
 4387              	.LASF51:
 4388 051b 4A657474 		.ascii	"Jetty_I2CMasterSendRestart\000"
 4388      795F4932 
 4388      434D6173 
 4388      74657253 
 4388      656E6452 
 4389              	.LASF63:
 4390 0536 4A657474 		.ascii	"Jetty_I2CFwBlockReset\000"
 4390      795F4932 
 4390      43467742 
 4390      6C6F636B 
 4390      52657365 
 4391              		.ident	"GCC: (GNU Tools for ARM Embedded Processors) 5.4.1 20160609 (release) [ARM/embedded-5-bran
