ARM GAS  C:\Users\tsien\AppData\Local\Temp\ccras0Ne.s 			page 1


   1              		.syntax unified
   2              		.cpu cortex-m0
   3              		.fpu softvfp
   4              		.eabi_attribute 20, 1
   5              		.eabi_attribute 21, 1
   6              		.eabi_attribute 23, 3
   7              		.eabi_attribute 24, 1
   8              		.eabi_attribute 25, 1
   9              		.eabi_attribute 26, 1
  10              		.eabi_attribute 30, 1
  11              		.eabi_attribute 34, 0
  12              		.eabi_attribute 18, 4
  13              		.thumb
  14              		.syntax unified
  15              		.file	"PortTemplate.c"
  16              		.text
  17              	.Ltext0:
  18              		.cfi_sections	.debug_frame
  19              		.section	.text.InitCAN,"ax",%progbits
  20              		.align	2
  21              		.global	InitCAN
  22              		.code	16
  23              		.thumb_func
  24              		.type	InitCAN, %function
  25              	InitCAN:
  26              	.LFB32:
  27              		.file 1 "HindsightCAN\\PortFiles\\PortTemplate.c"
   1:HindsightCAN\PortFiles/PortTemplate.c **** /*
   2:HindsightCAN\PortFiles/PortTemplate.c ****  * Documentation: https://huskyroboticsteam.slite.com/app/channels/iU0BryG7M9/collections/aXvWTcIR6
   3:HindsightCAN\PortFiles/PortTemplate.c ****  */
   4:HindsightCAN\PortFiles/PortTemplate.c **** #if CHIP_TYPE == CHIP_TYPE_PSOC_CY8C4245AXI_483//Replace this with the chip you are porting
   5:HindsightCAN\PortFiles/PortTemplate.c **** 
   6:HindsightCAN\PortFiles/PortTemplate.c **** #include "../Port.h"
   7:HindsightCAN\PortFiles/PortTemplate.c **** #include "project.h"
   8:HindsightCAN\PortFiles/PortTemplate.c **** 
   9:HindsightCAN\PortFiles/PortTemplate.c **** void InitCAN(int deviceGroup, int deviceAddress)
  10:HindsightCAN\PortFiles/PortTemplate.c **** {
  28              		.loc 1 10 0
  29              		.cfi_startproc
  30              		@ args = 0, pretend = 0, frame = 0
  31              		@ frame_needed = 0, uses_anonymous_args = 0
  32              		@ link register save eliminated.
  33              	.LVL0:
  11:HindsightCAN\PortFiles/PortTemplate.c ****     // Implement hardware initialization of CAN
  12:HindsightCAN\PortFiles/PortTemplate.c ****     // Including receive filters
  13:HindsightCAN\PortFiles/PortTemplate.c **** }
  34              		.loc 1 13 0
  35              		@ sp needed
  36 0000 7047     		bx	lr
  37              		.cfi_endproc
  38              	.LFE32:
  39              		.size	InitCAN, .-InitCAN
  40 0002 C046     		.section	.text.SendCANPacket,"ax",%progbits
  41              		.align	2
  42              		.global	SendCANPacket
  43              		.code	16
  44              		.thumb_func
ARM GAS  C:\Users\tsien\AppData\Local\Temp\ccras0Ne.s 			page 2


  45              		.type	SendCANPacket, %function
  46              	SendCANPacket:
  47              	.LFB33:
  14:HindsightCAN\PortFiles/PortTemplate.c **** int SendCANPacket(CANPacket *packetToSend)
  15:HindsightCAN\PortFiles/PortTemplate.c **** {
  48              		.loc 1 15 0
  49              		.cfi_startproc
  50              		@ args = 0, pretend = 0, frame = 0
  51              		@ frame_needed = 0, uses_anonymous_args = 0
  52              		@ link register save eliminated.
  53              	.LVL1:
  54              	.LVL2:
  16:HindsightCAN\PortFiles/PortTemplate.c ****     //Implement sending/ queing to send packet
  17:HindsightCAN\PortFiles/PortTemplate.c **** }
  55              		.loc 1 17 0
  56              		@ sp needed
  57 0000 7047     		bx	lr
  58              		.cfi_endproc
  59              	.LFE33:
  60              		.size	SendCANPacket, .-SendCANPacket
  61 0002 C046     		.section	.text.PollAndReceiveCANPacket,"ax",%progbits
  62              		.align	2
  63              		.global	PollAndReceiveCANPacket
  64              		.code	16
  65              		.thumb_func
  66              		.type	PollAndReceiveCANPacket, %function
  67              	PollAndReceiveCANPacket:
  68              	.LFB34:
  18:HindsightCAN\PortFiles/PortTemplate.c **** int PollAndReceiveCANPacket(CANPacket *receivedPacket)
  19:HindsightCAN\PortFiles/PortTemplate.c **** {
  69              		.loc 1 19 0
  70              		.cfi_startproc
  71              		@ args = 0, pretend = 0, frame = 0
  72              		@ frame_needed = 0, uses_anonymous_args = 0
  73              		@ link register save eliminated.
  74              	.LVL3:
  75              	.LVL4:
  20:HindsightCAN\PortFiles/PortTemplate.c ****     //Implement get next CAN packet from buffers/registers
  21:HindsightCAN\PortFiles/PortTemplate.c **** }
  76              		.loc 1 21 0
  77              		@ sp needed
  78 0000 7047     		bx	lr
  79              		.cfi_endproc
  80              	.LFE34:
  81              		.size	PollAndReceiveCANPacket, .-PollAndReceiveCANPacket
  82 0002 C046     		.section	.text.getLocalDeviceSerial,"ax",%progbits
  83              		.align	2
  84              		.global	getLocalDeviceSerial
  85              		.code	16
  86              		.thumb_func
  87              		.type	getLocalDeviceSerial, %function
  88              	getLocalDeviceSerial:
  89              	.LFB35:
  22:HindsightCAN\PortFiles/PortTemplate.c **** 
  23:HindsightCAN\PortFiles/PortTemplate.c **** uint8_t getLocalDeviceSerial()
  24:HindsightCAN\PortFiles/PortTemplate.c **** {
  90              		.loc 1 24 0
ARM GAS  C:\Users\tsien\AppData\Local\Temp\ccras0Ne.s 			page 3


  91              		.cfi_startproc
  92              		@ args = 0, pretend = 0, frame = 0
  93              		@ frame_needed = 0, uses_anonymous_args = 0
  94              		@ link register save eliminated.
  25:HindsightCAN\PortFiles/PortTemplate.c ****     //Reading DIP switches? Hard coded?
  26:HindsightCAN\PortFiles/PortTemplate.c ****     //This might be board specific, rather than chip specific.
  27:HindsightCAN\PortFiles/PortTemplate.c ****     return DEVICE_SERIAL_MOTOR_CHASSIS_FR; // example value (also used for testing)
  28:HindsightCAN\PortFiles/PortTemplate.c **** }
  95              		.loc 1 28 0
  96 0000 0920     		movs	r0, #9
  97              		@ sp needed
  98 0002 7047     		bx	lr
  99              		.cfi_endproc
 100              	.LFE35:
 101              		.size	getLocalDeviceSerial, .-getLocalDeviceSerial
 102              		.section	.text.getLocalDeviceGroup,"ax",%progbits
 103              		.align	2
 104              		.global	getLocalDeviceGroup
 105              		.code	16
 106              		.thumb_func
 107              		.type	getLocalDeviceGroup, %function
 108              	getLocalDeviceGroup:
 109              	.LFB36:
  29:HindsightCAN\PortFiles/PortTemplate.c **** uint8_t getLocalDeviceGroup()
  30:HindsightCAN\PortFiles/PortTemplate.c **** {
 110              		.loc 1 30 0
 111              		.cfi_startproc
 112              		@ args = 0, pretend = 0, frame = 0
 113              		@ frame_needed = 0, uses_anonymous_args = 0
 114              		@ link register save eliminated.
  31:HindsightCAN\PortFiles/PortTemplate.c ****     //Definitely board specific.
  32:HindsightCAN\PortFiles/PortTemplate.c ****     return DEVICE_GROUP_MOTOR_CONTROL; // example value (also used for testing)
  33:HindsightCAN\PortFiles/PortTemplate.c **** }
 115              		.loc 1 33 0
 116 0000 0420     		movs	r0, #4
 117              		@ sp needed
 118 0002 7047     		bx	lr
 119              		.cfi_endproc
 120              	.LFE36:
 121              		.size	getLocalDeviceGroup, .-getLocalDeviceGroup
 122              		.section	.text.getChipType,"ax",%progbits
 123              		.align	2
 124              		.global	getChipType
 125              		.code	16
 126              		.thumb_func
 127              		.type	getChipType, %function
 128              	getChipType:
 129              	.LFB37:
  34:HindsightCAN\PortFiles/PortTemplate.c **** 
  35:HindsightCAN\PortFiles/PortTemplate.c **** uint8_t getChipType()
  36:HindsightCAN\PortFiles/PortTemplate.c **** {
 130              		.loc 1 36 0
 131              		.cfi_startproc
 132              		@ args = 0, pretend = 0, frame = 0
 133              		@ frame_needed = 0, uses_anonymous_args = 0
 134              		@ link register save eliminated.
  37:HindsightCAN\PortFiles/PortTemplate.c ****     // return CHIP_TYPE; 
ARM GAS  C:\Users\tsien\AppData\Local\Temp\ccras0Ne.s 			page 4


  38:HindsightCAN\PortFiles/PortTemplate.c ****     return 0x05;
  39:HindsightCAN\PortFiles/PortTemplate.c ****     //Should be same for all ports, just not sure where to put it.
  40:HindsightCAN\PortFiles/PortTemplate.c **** }
 135              		.loc 1 40 0
 136 0000 0520     		movs	r0, #5
 137              		@ sp needed
 138 0002 7047     		bx	lr
 139              		.cfi_endproc
 140              	.LFE37:
 141              		.size	getChipType, .-getChipType
 142              		.text
 143              	.Letext0:
 144              		.file 2 "c:\\program files (x86)\\cypress\\psoc creator\\4.4\\psoc creator\\import\\gnu\\arm\\5.4.
 145              		.file 3 "c:\\program files (x86)\\cypress\\psoc creator\\4.4\\psoc creator\\import\\gnu\\arm\\5.4.
 146              		.file 4 "HindsightCAN\\PortFiles\\../CANPacket.h"